(cnumpy.core.multiarray
scalar
p1
(cnumpy
dtype
p2
(S'f8'
I0
I1
tRp3
(I3
S'<'
NNNI-1
I-1
I0
tbS'\xa7d4\x9b\x93\x87\xd9?'
tRp4
g1
(g3
S'\xde\xdd\xdd\xdd\xddzL?'
tRp5
(dp6
S'max_features_use_preset'
p7
I01
sS'max_features_preset'
p8
S'log2'
p9
sS'min_samples_leaf'
p10
I10
sS'criterion'
p11
g1
(g2
(S'S4'
I0
I1
tRp12
(I3
S'|'
NNNI4
I1
I0
tbS'gini'
tRp13
sS'min_samples_split'
p14
I6
sS'max_depth'
p15
I22
st.(cnumpy.core.multiarray
scalar
p1
(cnumpy
dtype
p2
(S'f8'
I0
I1
tRp3
(I3
S'<'
NNNI-1
I-1
I0
tbS'\xb6\x1cD;>c\xb2?'
tRp4
g1
(g3
S'\xcd\xcc\xcc\xcc\xcc\xa6G?'
tRp5
(dp6
S'max_features_sample'
p7
F0.75041838688847007
sS'max_features_use_preset'
p8
I00
sS'min_samples_leaf'
p9
I13
sS'criterion'
p10
g1
(g2
(S'S4'
I0
I1
tRp11
(I3
S'|'
NNNI4
I1
I0
tbS'gini'
tRp12
sS'min_samples_split'
p13
I16
sS'max_depth'
p14
I1
st.(cnumpy.core.multiarray
scalar
p1
(cnumpy
dtype
p2
(S'f8'
I0
I1
tRp3
(I3
S'<'
NNNI-1
I-1
I0
tbS':\xd1\xbf\xcb[*\xd6?'
tRp4
g1
(g3
S'\xbc\xbb\xbb\xbb;5S?'
tRp5
(dp6
S'max_features_sample'
p7
F0.7069327184471309
sS'max_features_use_preset'
p8
I00
sS'min_samples_leaf'
p9
I16
sS'criterion'
p10
g1
(g2
(S'S7'
I0
I1
tRp11
(I3
S'|'
NNNI7
I1
I0
tbS'entropy'
tRp12
sS'min_samples_split'
p13
I13
sS'max_depth'
p14
I51
st.(cnumpy.core.multiarray
scalar
p1
(cnumpy
dtype
p2
(S'f8'
I0
I1
tRp3
(I3
S'<'
NNNI-1
I-1
I0
tbS'\x04\x90}\xdc\x0f\xcc\xd5?'
tRp4
g1
(g3
S'"""""tO?'
tRp5
(dp6
S'max_features_sample'
p7
F0.62883041245212579
sS'max_features_use_preset'
p8
I00
sS'min_samples_leaf'
p9
I14
sS'criterion'
p10
g1
(g2
(S'S7'
I0
I1
tRp11
(I3
S'|'
NNNI7
I1
I0
tbS'entropy'
tRp12
sS'min_samples_split'
p13
I17
sS'max_depth'
p14
I6
st.(cnumpy.core.multiarray
scalar
p1
(cnumpy
dtype
p2
(S'f8'
I0
I1
tRp3
(I3
S'<'
NNNI-1
I-1
I0
tbS'\xfb{\n!v\xfd\xd3?'
tRp4
g1
(g3
S'\xbc\xbb\xbb\xbb\xbb\xccQ?'
tRp5
(dp6
S'max_features_use_preset'
p7
I01
sS'max_features_preset'
p8
NsS'min_samples_leaf'
p9
I20
sS'criterion'
p10
g1
(g2
(S'S7'
I0
I1
tRp11
(I3
S'|'
NNNI7
I1
I0
tbS'entropy'
tRp12
sS'min_samples_split'
p13
I5
sS'max_depth'
p14
I6
st.(cnumpy.core.multiarray
scalar
p1
(cnumpy
dtype
p2
(S'f8'
I0
I1
tRp3
(I3
S'<'
NNNI-1
I-1
I0
tbS'\x1c5c\xdfz\x96\xb3?'
tRp4
g1
(g3
S'DDDDD\x8bI?'
tRp5
(dp6
S'max_features_use_preset'
p7
I01
sS'max_features_preset'
p8
S'sqrt'
p9
sS'min_samples_leaf'
p10
I6
sS'criterion'
p11
g1
(g2
(S'S4'
I0
I1
tRp12
(I3
S'|'
NNNI4
I1
I0
tbS'gini'
tRp13
sS'min_samples_split'
p14
I10
sS'max_depth'
p15
I1
st.(cnumpy.core.multiarray
scalar
p1
(cnumpy
dtype
p2
(S'f8'
I0
I1
tRp3
(I3
S'<'
NNNI-1
I-1
I0
tbS'\x1c5\xed\xb6\xfe\xaa\xdd?'
tRp4
g1
(g3
S'\xcd\xcc\xcc\xccL\x9cR?'
tRp5
(dp6
S'max_features_sample'
p7
F0.98250372271061825
sS'max_features_use_preset'
p8
I00
sS'min_samples_leaf'
p9
I3
sS'criterion'
p10
g1
(g2
(S'S7'
I0
I1
tRp11
(I3
S'|'
NNNI7
I1
I0
tbS'entropy'
tRp12
sS'min_samples_split'
p13
I17
sS'max_depth'
p14
I10
st.(cnumpy.core.multiarray
scalar
p1
(cnumpy
dtype
p2
(S'f8'
I0
I1
tRp3
(I3
S'<'
NNNI-1
I-1
I0
tbS'L\x1d\x905zw\xd6?'
tRp4
g1
(g3
S'\xde\xdd\xdd\xdd]&S?'
tRp5
(dp6
S'max_features_use_preset'
p7
I01
sS'max_features_preset'
p8
NsS'min_samples_leaf'
p9
I16
sS'criterion'
p10
g1
(g2
(S'S7'
I0
I1
tRp11
(I3
S'|'
NNNI7
I1
I0
tbS'entropy'
tRp12
sS'min_samples_split'
p13
I20
sS'max_depth'
p14
I62
st.(cnumpy.core.multiarray
scalar
p1
(cnumpy
dtype
p2
(S'f8'
I0
I1
tRp3
(I3
S'<'
NNNI-1
I-1
I0
tbS'\xeb\x88\xa9\x9e4/\xde?'
tRp4
g1
(g3
S'\xef\xee\xee\xeen\xd5Q?'
tRp5
(dp6
S'max_features_sample'
p7
F0.77023152177910659
sS'max_features_use_preset'
p8
I00
sS'min_samples_leaf'
p9
I3
sS'criterion'
p10
g1
(g2
(S'S4'
I0
I1
tRp11
(I3
S'|'
NNNI4
I1
I0
tbS'gini'
tRp12
sS'min_samples_split'
p13
I14
sS'max_depth'
p14
I5
st.(cnumpy.core.multiarray
scalar
p1
(cnumpy
dtype
p2
(S'f8'
I0
I1
tRp3
(I3
S'<'
NNNI-1
I-1
I0
tbS'\x91\xa1\xabE\xa3\xa1\xc5?'
tRp4
g1
(g3
S'\xbc\xbb\xbb\xbb\xbbTH?'
tRp5
(dp6
S'max_features_sample'
p7
F0.43398815754674736
sS'max_features_use_preset'
p8
I00
sS'min_samples_leaf'
p9
I4
sS'criterion'
p10
g1
(g2
(S'S7'
I0
I1
tRp11
(I3
S'|'
NNNI7
I1
I0
tbS'entropy'
tRp12
sS'min_samples_split'
p13
I20
sS'max_depth'
p14
I2
st.(cnumpy.core.multiarray
scalar
p1
(cnumpy
dtype
p2
(S'f8'
I0
I1
tRp3
(I3
S'<'
NNNI-1
I-1
I0
tbS'\x8bFN\xb9\x9e\x8f\xd8?'
tRp4
g1
(g3
S'fffff\xa1N?'
tRp5
(dp6
S'max_features_use_preset'
p7
I01
sS'max_features_preset'
p8
S'log2'
p9
sS'min_samples_leaf'
p10
I2
sS'criterion'
p11
g1
(g2
(S'S7'
I0
I1
tRp12
(I3
S'|'
NNNI7
I1
I0
tbS'entropy'
tRp13
sS'min_samples_split'
p14
I2
sS'max_depth'
p15
I4
st.(cnumpy.core.multiarray
scalar
p1
(cnumpy
dtype
p2
(S'f8'
I0
I1
tRp3
(I3
S'<'
NNNI-1
I-1
I0
tbS'\x1f\xdb=\x83U\x87\xdc?'
tRp4
g1
(g3
S'\xbc\xbb\xbb\xbb;\x8bP?'
tRp5
(dp6
S'max_features_sample'
p7
F0.73530750395695188
sS'max_features_use_preset'
p8
I00
sS'min_samples_leaf'
p9
I6
sS'criterion'
p10
g1
(g2
(S'S4'
I0
I1
tRp11
(I3
S'|'
NNNI4
I1
I0
tbS'gini'
tRp12
sS'min_samples_split'
p13
I13
sS'max_depth'
p14
I87
st.(cnumpy.core.multiarray
scalar
p1
(cnumpy
dtype
p2
(S'f8'
I0
I1
tRp3
(I3
S'<'
NNNI-1
I-1
I0
tbS'N,\xbf\x84\x81\xe4\xd1?'
tRp4
g1
(g3
S'\x00\x00\x00\x00\x00\xcaJ?'
tRp5
(dp6
S'max_features_sample'
p7
F0.45306803751385316
sS'max_features_use_preset'
p8
I00
sS'min_samples_leaf'
p9
I15
sS'criterion'
p10
g1
(g2
(S'S4'
I0
I1
tRp11
(I3
S'|'
NNNI4
I1
I0
tbS'gini'
tRp12
sS'min_samples_split'
p13
I4
sS'max_depth'
p14
I31
st.(cnumpy.core.multiarray
scalar
p1
(cnumpy
dtype
p2
(S'f8'
I0
I1
tRp3
(I3
S'<'
NNNI-1
I-1
I0
tbS'I\x9c0|V>\xd5?'
tRp4
g1
(g3
S'"""""\x8dO?'
tRp5
(dp6
S'max_features_use_preset'
p7
I01
sS'max_features_preset'
p8
S'sqrt'
p9
sS'min_samples_leaf'
p10
I13
sS'criterion'
p11
g1
(g2
(S'S4'
I0
I1
tRp12
(I3
S'|'
NNNI4
I1
I0
tbS'gini'
tRp13
sS'min_samples_split'
p14
I6
sS'max_depth'
p15
I50
st.(cnumpy.core.multiarray
scalar
p1
(cnumpy
dtype
p2
(S'f8'
I0
I1
tRp3
(I3
S'<'
NNNI-1
I-1
I0
tbS')7\xd5\xe0\xf6\x04\xd6?'
tRp4
g1
(g3
S'"""""pK?'
tRp5
(dp6
S'max_features_sample'
p7
F0.27680990926540372
sS'max_features_use_preset'
p8
I00
sS'min_samples_leaf'
p9
I6
sS'criterion'
p10
g1
(g2
(S'S7'
I0
I1
tRp11
(I3
S'|'
NNNI7
I1
I0
tbS'entropy'
tRp12
sS'min_samples_split'
p13
I20
sS'max_depth'
p14
I45
st.(cnumpy.core.multiarray
scalar
p1
(cnumpy
dtype
p2
(S'f8'
I0
I1
tRp3
(I3
S'<'
NNNI-1
I-1
I0
tbS'\x1e=\xc7\x8b\x04\x9c\xd5?'
tRp4
g1
(g3
S'""""\xa2\xf1Q?'
tRp5
(dp6
S'max_features_use_preset'
p7
I01
sS'max_features_preset'
p8
NsS'min_samples_leaf'
p9
I17
sS'criterion'
p10
g1
(g2
(S'S4'
I0
I1
tRp11
(I3
S'|'
NNNI4
I1
I0
tbS'gini'
tRp12
sS'min_samples_split'
p13
I11
sS'max_depth'
p14
I10
st.(cnumpy.core.multiarray
scalar
p1
(cnumpy
dtype
p2
(S'f8'
I0
I1
tRp3
(I3
S'<'
NNNI-1
I-1
I0
tbS'\x05d\xbbh[\xe7\xd5?'
tRp4
g1
(g3
S'"""""NK?'
tRp5
(dp6
S'max_features_sample'
p7
F0.34768726785371717
sS'max_features_use_preset'
p8
I00
sS'min_samples_leaf'
p9
I9
sS'criterion'
p10
g1
(g2
(S'S4'
I0
I1
tRp11
(I3
S'|'
NNNI4
I1
I0
tbS'gini'
tRp12
sS'min_samples_split'
p13
I5
sS'max_depth'
p14
I30
st.(cnumpy.core.multiarray
scalar
p1
(cnumpy
dtype
p2
(S'f8'
I0
I1
tRp3
(I3
S'<'
NNNI-1
I-1
I0
tbS'F\x02wR\x92\xf6\xd5?'
tRp4
g1
(g3
S'\x9a\x99\x99\x99\x99VN?'
tRp5
(dp6
S'max_features_sample'
p7
F0.53516137779972783
sS'max_features_use_preset'
p8
I00
sS'min_samples_leaf'
p9
I14
sS'criterion'
p10
g1
(g2
(S'S4'
I0
I1
tRp11
(I3
S'|'
NNNI4
I1
I0
tbS'gini'
tRp12
sS'min_samples_split'
p13
I9
sS'max_depth'
p14
I7
st.(cnumpy.core.multiarray
scalar
p1
(cnumpy
dtype
p2
(S'f8'
I0
I1
tRp3
(I3
S'<'
NNNI-1
I-1
I0
tbS'K}K%\xa58\xdb?'
tRp4
g1
(g3
S'"""""fR?'
tRp5
(dp6
S'max_features_use_preset'
p7
I01
sS'max_features_preset'
p8
S'sqrt'
p9
sS'min_samples_leaf'
p10
I5
sS'criterion'
p11
g1
(g2
(S'S4'
I0
I1
tRp12
(I3
S'|'
NNNI4
I1
I0
tbS'gini'
tRp13
sS'min_samples_split'
p14
I17
sS'max_depth'
p15
I74
st.(cnumpy.core.multiarray
scalar
p1
(cnumpy
dtype
p2
(S'f8'
I0
I1
tRp3
(I3
S'<'
NNNI-1
I-1
I0
tbS'"\xf1P\x02x0\xd8?'
tRp4
g1
(g3
S'\xcd\xcc\xcc\xccLIP?'
tRp5
(dp6
S'max_features_use_preset'
p7
I01
sS'max_features_preset'
p8
S'sqrt'
p9
sS'min_samples_leaf'
p10
I11
sS'criterion'
p11
g1
(g2
(S'S7'
I0
I1
tRp12
(I3
S'|'
NNNI7
I1
I0
tbS'entropy'
tRp13
sS'min_samples_split'
p14
I17
sS'max_depth'
p15
I75
st.(cnumpy.core.multiarray
scalar
p1
(cnumpy
dtype
p2
(S'f8'
I0
I1
tRp3
(I3
S'<'
NNNI-1
I-1
I0
tbS'\x1f\x89\xf8\x89\xf59\xe2?'
tRp4
g1
(g3
S'\xef\xee\xee\xee\xee\xb3X?'
tRp5
(dp6
S'max_features_use_preset'
p7
I01
sS'max_features_preset'
p8
NsS'min_samples_leaf'
p9
I2
sS'criterion'
p10
g1
(g2
(S'S4'
I0
I1
tRp11
(I3
S'|'
NNNI4
I1
I0
tbS'gini'
tRp12
sS'min_samples_split'
p13
I5
sS'max_depth'
p14
I10
st.(cnumpy.core.multiarray
scalar
p1
(cnumpy
dtype
p2
(S'f8'
I0
I1
tRp3
(I3
S'<'
NNNI-1
I-1
I0
tbS'\xba\tM_@=\xdc?'
tRp4
g1
(g3
S'\xde\xdd\xdd\xdd]\x0bQ?'
tRp5
(dp6
S'max_features_use_preset'
p7
I01
sS'max_features_preset'
p8
S'sqrt'
p9
sS'min_samples_leaf'
p10
I3
sS'criterion'
p11
g1
(g2
(S'S4'
I0
I1
tRp12
(I3
S'|'
NNNI4
I1
I0
tbS'gini'
tRp13
sS'min_samples_split'
p14
I14
sS'max_depth'
p15
I30
st.(cnumpy.core.multiarray
scalar
p1
(cnumpy
dtype
p2
(S'f8'
I0
I1
tRp3
(I3
S'<'
NNNI-1
I-1
I0
tbS'\xc4\x02\xcf9\x0c\xb3\xd5?'
tRp4
g1
(g3
S'33333iP?'
tRp5
(dp6
S'max_features_sample'
p7
F0.98296552335408371
sS'max_features_use_preset'
p8
I00
sS'min_samples_leaf'
p9
I17
sS'criterion'
p10
g1
(g2
(S'S4'
I0
I1
tRp11
(I3
S'|'
NNNI4
I1
I0
tbS'gini'
tRp12
sS'min_samples_split'
p13
I16
sS'max_depth'
p14
I61
st.(cnumpy.core.multiarray
scalar
p1
(cnumpy
dtype
p2
(S'f8'
I0
I1
tRp3
(I3
S'<'
NNNI-1
I-1
I0
tbS'\xb1\xc8i\r.\x03\xe2?'
tRp4
g1
(g3
S'\x11\x11\x11\x11\x91\xfdW?'
tRp5
(dp6
S'max_features_use_preset'
p7
I01
sS'max_features_preset'
p8
NsS'min_samples_leaf'
p9
I2
sS'criterion'
p10
g1
(g2
(S'S7'
I0
I1
tRp11
(I3
S'|'
NNNI7
I1
I0
tbS'entropy'
tRp12
sS'min_samples_split'
p13
I4
sS'max_depth'
p14
I7
st.(cnumpy.core.multiarray
scalar
p1
(cnumpy
dtype
p2
(S'f8'
I0
I1
tRp3
(I3
S'<'
NNNI-1
I-1
I0
tbS'\xb7-\x8b:\x9e\x90\xd6?'
tRp4
g1
(g3
S'\x00\x00\x00\x00\x00-O?'
tRp5
(dp6
S'max_features_sample'
p7
F0.64683775693981771
sS'max_features_use_preset'
p8
I00
sS'min_samples_leaf'
p9
I6
sS'criterion'
p10
g1
(g2
(S'S7'
I0
I1
tRp11
(I3
S'|'
NNNI7
I1
I0
tbS'entropy'
tRp12
sS'min_samples_split'
p13
I18
sS'max_depth'
p14
I4
st.(cnumpy.core.multiarray
scalar
p1
(cnumpy
dtype
p2
(S'f8'
I0
I1
tRp3
(I3
S'<'
NNNI-1
I-1
I0
tbS'5\n@\xcd_\xf7\xd2?'
tRp4
g1
(g3
S'\x00\x00\x00\x00\x00\xedL?'
tRp5
(dp6
S'max_features_sample'
p7
F0.60150309551873493
sS'max_features_use_preset'
p8
I00
sS'min_samples_leaf'
p9
I2
sS'criterion'
p10
g1
(g2
(S'S7'
I0
I1
tRp11
(I3
S'|'
NNNI7
I1
I0
tbS'entropy'
tRp12
sS'min_samples_split'
p13
I20
sS'max_depth'
p14
I3
st.(cnumpy.core.multiarray
scalar
p1
(cnumpy
dtype
p2
(S'f8'
I0
I1
tRp3
(I3
S'<'
NNNI-1
I-1
I0
tbS'\xaa~\x19\xbbF\x06\xd5?'
tRp4
g1
(g3
S'\xef\xee\xee\xee\xee\xcdN?'
tRp5
(dp6
S'max_features_use_preset'
p7
I01
sS'max_features_preset'
p8
S'log2'
p9
sS'min_samples_leaf'
p10
I14
sS'criterion'
p11
g1
(g2
(S'S7'
I0
I1
tRp12
(I3
S'|'
NNNI7
I1
I0
tbS'entropy'
tRp13
sS'min_samples_split'
p14
I8
sS'max_depth'
p15
I7
st.(cnumpy.core.multiarray
scalar
p1
(cnumpy
dtype
p2
(S'f8'
I0
I1
tRp3
(I3
S'<'
NNNI-1
I-1
I0
tbS'\xf5\x83\xe5\xe7\x8b\x0e\xe0?'
tRp4
g1
(g3
S'\xbc\xbb\xbb\xbb\xbb\x12R?'
tRp5
(dp6
S'max_features_sample'
p7
F0.71451087941292102
sS'max_features_use_preset'
p8
I00
sS'min_samples_leaf'
p9
I3
sS'criterion'
p10
g1
(g2
(S'S7'
I0
I1
tRp11
(I3
S'|'
NNNI7
I1
I0
tbS'entropy'
tRp12
sS'min_samples_split'
p13
I8
sS'max_depth'
p14
I25
st.(cnumpy.core.multiarray
scalar
p1
(cnumpy
dtype
p2
(S'f8'
I0
I1
tRp3
(I3
S'<'
NNNI-1
I-1
I0
tbS"'\xee[\xa4\x81\xcb\xdb?"
tRp4
g1
(g3
S'\x9a\x99\x99\x99\x99\xaeO?'
tRp5
(dp6
S'max_features_use_preset'
p7
I01
sS'max_features_preset'
p8
S'log2'
p9
sS'min_samples_leaf'
p10
I9
sS'criterion'
p11
g1
(g2
(S'S7'
I0
I1
tRp12
(I3
S'|'
NNNI7
I1
I0
tbS'entropy'
tRp13
sS'min_samples_split'
p14
I16
sS'max_depth'
p15
I10
st.