(lp1
(dp2
S'max_features_use_preset'
p3
I01
sS'max_features_preset'
p4
S'log2'
p5
sS'min_samples_leaf'
p6
I10
sS'criterion'
p7
cnumpy.core.multiarray
scalar
p8
(cnumpy
dtype
p9
(S'S4'
I0
I1
tRp10
(I3
S'|'
NNNI4
I1
I0
tbS'gini'
tRp11
sS'min_samples_split'
p12
I6
sS'max_depth'
p13
I22
sa(dp14
S'max_features_use_preset'
p15
I01
sS'max_features_preset'
p16
S'sqrt'
p17
sS'min_samples_leaf'
p18
I6
sS'criterion'
p19
g8
(g9
(S'S4'
I0
I1
tRp20
(I3
S'|'
NNNI4
I1
I0
tbS'gini'
tRp21
sS'min_samples_split'
p22
I10
sS'max_depth'
p23
I1
sa(dp24
S'max_features_use_preset'
p25
I01
sS'max_features_preset'
p26
S'sqrt'
p27
sS'min_samples_leaf'
p28
I13
sS'criterion'
p29
g8
(g9
(S'S4'
I0
I1
tRp30
(I3
S'|'
NNNI4
I1
I0
tbS'gini'
tRp31
sS'min_samples_split'
p32
I6
sS'max_depth'
p33
I50
sa(dp34
S'max_features_use_preset'
p35
I01
sS'max_features_preset'
p36
S'sqrt'
p37
sS'min_samples_leaf'
p38
I5
sS'criterion'
p39
g8
(g9
(S'S4'
I0
I1
tRp40
(I3
S'|'
NNNI4
I1
I0
tbS'gini'
tRp41
sS'min_samples_split'
p42
I17
sS'max_depth'
p43
I74
sa(dp44
S'max_features_use_preset'
p45
I01
sS'max_features_preset'
p46
S'sqrt'
p47
sS'min_samples_leaf'
p48
I3
sS'criterion'
p49
g8
(g9
(S'S4'
I0
I1
tRp50
(I3
S'|'
NNNI4
I1
I0
tbS'gini'
tRp51
sS'min_samples_split'
p52
I14
sS'max_depth'
p53
I30
sa(dp54
S'max_features_use_preset'
p55
I01
sS'max_features_preset'
p56
NsS'min_samples_leaf'
p57
I17
sS'criterion'
p58
g8
(g9
(S'S4'
I0
I1
tRp59
(I3
S'|'
NNNI4
I1
I0
tbS'gini'
tRp60
sS'min_samples_split'
p61
I11
sS'max_depth'
p62
I10
sa(dp63
S'max_features_use_preset'
p64
I01
sS'max_features_preset'
p65
NsS'min_samples_leaf'
p66
I2
sS'criterion'
p67
g8
(g9
(S'S4'
I0
I1
tRp68
(I3
S'|'
NNNI4
I1
I0
tbS'gini'
tRp69
sS'min_samples_split'
p70
I5
sS'max_depth'
p71
I10
sa(dp72
S'max_features_sample'
p73
F0.75041838688847007
sS'max_features_use_preset'
p74
I00
sS'min_samples_leaf'
p75
I13
sS'criterion'
p76
g8
(g9
(S'S4'
I0
I1
tRp77
(I3
S'|'
NNNI4
I1
I0
tbS'gini'
tRp78
sS'min_samples_split'
p79
I16
sS'max_depth'
p80
I1
sa(dp81
S'max_features_sample'
p82
F0.77023152177910659
sS'max_features_use_preset'
p83
I00
sS'min_samples_leaf'
p84
I3
sS'criterion'
p85
g8
(g9
(S'S4'
I0
I1
tRp86
(I3
S'|'
NNNI4
I1
I0
tbS'gini'
tRp87
sS'min_samples_split'
p88
I14
sS'max_depth'
p89
I5
sa(dp90
S'max_features_sample'
p91
F0.73530750395695188
sS'max_features_use_preset'
p92
I00
sS'min_samples_leaf'
p93
I6
sS'criterion'
p94
g8
(g9
(S'S4'
I0
I1
tRp95
(I3
S'|'
NNNI4
I1
I0
tbS'gini'
tRp96
sS'min_samples_split'
p97
I13
sS'max_depth'
p98
I87
sa(dp99
S'max_features_sample'
p100
F0.45306803751385316
sS'max_features_use_preset'
p101
I00
sS'min_samples_leaf'
p102
I15
sS'criterion'
p103
g8
(g9
(S'S4'
I0
I1
tRp104
(I3
S'|'
NNNI4
I1
I0
tbS'gini'
tRp105
sS'min_samples_split'
p106
I4
sS'max_depth'
p107
I31
sa(dp108
S'max_features_sample'
p109
F0.34768726785371717
sS'max_features_use_preset'
p110
I00
sS'min_samples_leaf'
p111
I9
sS'criterion'
p112
g8
(g9
(S'S4'
I0
I1
tRp113
(I3
S'|'
NNNI4
I1
I0
tbS'gini'
tRp114
sS'min_samples_split'
p115
I5
sS'max_depth'
p116
I30
sa(dp117
S'max_features_sample'
p118
F0.53516137779972783
sS'max_features_use_preset'
p119
I00
sS'min_samples_leaf'
p120
I14
sS'criterion'
p121
g8
(g9
(S'S4'
I0
I1
tRp122
(I3
S'|'
NNNI4
I1
I0
tbS'gini'
tRp123
sS'min_samples_split'
p124
I9
sS'max_depth'
p125
I7
sa(dp126
S'max_features_sample'
p127
F0.98296552335408371
sS'max_features_use_preset'
p128
I00
sS'min_samples_leaf'
p129
I17
sS'criterion'
p130
g8
(g9
(S'S4'
I0
I1
tRp131
(I3
S'|'
NNNI4
I1
I0
tbS'gini'
tRp132
sS'min_samples_split'
p133
I16
sS'max_depth'
p134
I61
sa(dp135
S'max_features_use_preset'
p136
I01
sS'max_features_preset'
p137
S'log2'
p138
sS'min_samples_leaf'
p139
I2
sS'criterion'
p140
g8
(g9
(S'S7'
I0
I1
tRp141
(I3
S'|'
NNNI7
I1
I0
tbS'entropy'
tRp142
sS'min_samples_split'
p143
I2
sS'max_depth'
p144
I4
sa(dp145
S'max_features_use_preset'
p146
I01
sS'max_features_preset'
p147
S'log2'
p148
sS'min_samples_leaf'
p149
I14
sS'criterion'
p150
g8
(g9
(S'S7'
I0
I1
tRp151
(I3
S'|'
NNNI7
I1
I0
tbS'entropy'
tRp152
sS'min_samples_split'
p153
I8
sS'max_depth'
p154
I7
sa(dp155
S'max_features_use_preset'
p156
I01
sS'max_features_preset'
p157
S'log2'
p158
sS'min_samples_leaf'
p159
I9
sS'criterion'
p160
g8
(g9
(S'S7'
I0
I1
tRp161
(I3
S'|'
NNNI7
I1
I0
tbS'entropy'
tRp162
sS'min_samples_split'
p163
I16
sS'max_depth'
p164
I10
sa(dp165
S'max_features_use_preset'
p166
I01
sS'max_features_preset'
p167
S'sqrt'
p168
sS'min_samples_leaf'
p169
I11
sS'criterion'
p170
g8
(g9
(S'S7'
I0
I1
tRp171
(I3
S'|'
NNNI7
I1
I0
tbS'entropy'
tRp172
sS'min_samples_split'
p173
I17
sS'max_depth'
p174
I75
sa(dp175
S'max_features_use_preset'
p176
I01
sS'max_features_preset'
p177
NsS'min_samples_leaf'
p178
I20
sS'criterion'
p179
g8
(g9
(S'S7'
I0
I1
tRp180
(I3
S'|'
NNNI7
I1
I0
tbS'entropy'
tRp181
sS'min_samples_split'
p182
I5
sS'max_depth'
p183
I6
sa(dp184
S'max_features_use_preset'
p185
I01
sS'max_features_preset'
p186
NsS'min_samples_leaf'
p187
I16
sS'criterion'
p188
g8
(g9
(S'S7'
I0
I1
tRp189
(I3
S'|'
NNNI7
I1
I0
tbS'entropy'
tRp190
sS'min_samples_split'
p191
I20
sS'max_depth'
p192
I62
sa(dp193
S'max_features_use_preset'
p194
I01
sS'max_features_preset'
p195
NsS'min_samples_leaf'
p196
I2
sS'criterion'
p197
g8
(g9
(S'S7'
I0
I1
tRp198
(I3
S'|'
NNNI7
I1
I0
tbS'entropy'
tRp199
sS'min_samples_split'
p200
I4
sS'max_depth'
p201
I7
sa(dp202
S'max_features_sample'
p203
F0.7069327184471309
sS'max_features_use_preset'
p204
I00
sS'min_samples_leaf'
p205
I16
sS'criterion'
p206
g8
(g9
(S'S7'
I0
I1
tRp207
(I3
S'|'
NNNI7
I1
I0
tbS'entropy'
tRp208
sS'min_samples_split'
p209
I13
sS'max_depth'
p210
I51
sa(dp211
S'max_features_sample'
p212
F0.62883041245212579
sS'max_features_use_preset'
p213
I00
sS'min_samples_leaf'
p214
I14
sS'criterion'
p215
g8
(g9
(S'S7'
I0
I1
tRp216
(I3
S'|'
NNNI7
I1
I0
tbS'entropy'
tRp217
sS'min_samples_split'
p218
I17
sS'max_depth'
p219
I6
sa(dp220
S'max_features_sample'
p221
F0.98250372271061825
sS'max_features_use_preset'
p222
I00
sS'min_samples_leaf'
p223
I3
sS'criterion'
p224
g8
(g9
(S'S7'
I0
I1
tRp225
(I3
S'|'
NNNI7
I1
I0
tbS'entropy'
tRp226
sS'min_samples_split'
p227
I17
sS'max_depth'
p228
I10
sa(dp229
S'max_features_sample'
p230
F0.43398815754674736
sS'max_features_use_preset'
p231
I00
sS'min_samples_leaf'
p232
I4
sS'criterion'
p233
g8
(g9
(S'S7'
I0
I1
tRp234
(I3
S'|'
NNNI7
I1
I0
tbS'entropy'
tRp235
sS'min_samples_split'
p236
I20
sS'max_depth'
p237
I2
sa(dp238
S'max_features_sample'
p239
F0.27680990926540372
sS'max_features_use_preset'
p240
I00
sS'min_samples_leaf'
p241
I6
sS'criterion'
p242
g8
(g9
(S'S7'
I0
I1
tRp243
(I3
S'|'
NNNI7
I1
I0
tbS'entropy'
tRp244
sS'min_samples_split'
p245
I20
sS'max_depth'
p246
I45
sa(dp247
S'max_features_sample'
p248
F0.64683775693981771
sS'max_features_use_preset'
p249
I00
sS'min_samples_leaf'
p250
I6
sS'criterion'
p251
g8
(g9
(S'S7'
I0
I1
tRp252
(I3
S'|'
NNNI7
I1
I0
tbS'entropy'
tRp253
sS'min_samples_split'
p254
I18
sS'max_depth'
p255
I4
sa(dp256
S'max_features_sample'
p257
F0.60150309551873493
sS'max_features_use_preset'
p258
I00
sS'min_samples_leaf'
p259
I2
sS'criterion'
p260
g8
(g9
(S'S7'
I0
I1
tRp261
(I3
S'|'
NNNI7
I1
I0
tbS'entropy'
tRp262
sS'min_samples_split'
p263
I20
sS'max_depth'
p264
I3
sa(dp265
S'max_features_sample'
p266
F0.71451087941292102
sS'max_features_use_preset'
p267
I00
sS'min_samples_leaf'
p268
I3
sS'criterion'
p269
g8
(g9
(S'S7'
I0
I1
tRp270
(I3
S'|'
NNNI7
I1
I0
tbS'entropy'
tRp271
sS'min_samples_split'
p272
I8
sS'max_depth'
p273
I25
sa.