(cnumpy.core.multiarray
scalar
p1
(cnumpy
dtype
p2
(S'f8'
I0
I1
tRp3
(I3
S'<'
NNNI-1
I-1
I0
tbS'\x15m=\x99\\\x99\xd7?'
tRp4
g1
(g3
S'3333C\xef\x89?'
tRp5
(dp6
S'max_features_use_preset'
p7
I01
sS'bootstrap'
p8
I00
sS'max_features_preset'
p9
S'log2'
p10
sS'min_samples_leaf'
p11
I8
sS'n_estimators'
p12
I11
sS'criterion'
p13
g1
(g2
(S'S4'
I0
I1
tRp14
(I3
S'|'
NNNI4
I1
I0
tbS'gini'
tRp15
sS'min_samples_split'
p16
I12
sS'max_depth'
p17
I6
st.(cnumpy.core.multiarray
scalar
p1
(cnumpy
dtype
p2
(S'f8'
I0
I1
tRp3
(I3
S'<'
NNNI-1
I-1
I0
tbS'=\xba\x00\x95wL\xaa?'
tRp4
g1
(g3
S'ffff\x16\xc5\x87?'
tRp5
(dp6
S'max_features_sample'
p7
F0.29171301715576436
sS'max_features_use_preset'
p8
I00
sS'bootstrap'
p9
I00
sS'min_samples_leaf'
p10
I3
sS'n_estimators'
p11
I11
sS'criterion'
p12
g1
(g2
(S'S7'
I0
I1
tRp13
(I3
S'|'
NNNI7
I1
I0
tbS'entropy'
tRp14
sS'min_samples_split'
p15
I11
sS'max_depth'
p16
I1
st.(cnumpy.core.multiarray
scalar
p1
(cnumpy
dtype
p2
(S'f8'
I0
I1
tRp3
(I3
S'<'
NNNI-1
I-1
I0
tbS'\xff"J\x0b]0\xc1?'
tRp4
g1
(g3
S'\xbc\xbb\xbb\xbb\x9b\xf3\x86?'
tRp5
(dp6
S'max_features_sample'
p7
F0.27320624132612636
sS'max_features_use_preset'
p8
I00
sS'bootstrap'
p9
I00
sS'min_samples_leaf'
p10
I12
sS'n_estimators'
p11
I10
sS'criterion'
p12
g1
(g2
(S'S4'
I0
I1
tRp13
(I3
S'|'
NNNI4
I1
I0
tbS'gini'
tRp14
sS'min_samples_split'
p15
I2
sS'max_depth'
p16
I2
st.(cnumpy.core.multiarray
scalar
p1
(cnumpy
dtype
p2
(S'f8'
I0
I1
tRp3
(I3
S'<'
NNNI-1
I-1
I0
tbS'|^\x1d\xf3D\xdc\xd3?'
tRp4
g1
(g3
S'DDDD\xe4\x8e\x89?'
tRp5
(dp6
S'oob_score'
p7
I01
sS'max_features_use_preset'
p8
I01
sS'bootstrap'
p9
I01
sS'max_features_preset'
p10
S'sqrt'
p11
sS'min_samples_leaf'
p12
I4
sS'n_estimators'
p13
I7
sS'criterion'
p14
g1
(g2
(S'S7'
I0
I1
tRp15
(I3
S'|'
NNNI7
I1
I0
tbS'entropy'
tRp16
sS'min_samples_split'
p17
I5
sS'max_depth'
p18
I4
st.(cnumpy.core.multiarray
scalar
p1
(cnumpy
dtype
p2
(S'f8'
I0
I1
tRp3
(I3
S'<'
NNNI-1
I-1
I0
tbS'\xa1F\x03>X*\xcd?'
tRp4
g1
(g3
S'\xcd\xcc\xcc\xcc\xbc\xe9\x99?'
tRp5
(dp6
S'max_features_sample'
p7
F0.56720203654107837
sS'max_features_use_preset'
p8
I00
sS'bootstrap'
p9
I00
sS'min_samples_leaf'
p10
I12
sS'n_estimators'
p11
I19
sS'criterion'
p12
g1
(g2
(S'S4'
I0
I1
tRp13
(I3
S'|'
NNNI4
I1
I0
tbS'gini'
tRp14
sS'min_samples_split'
p15
I20
sS'max_depth'
p16
I3
st.(cnumpy.core.multiarray
scalar
p1
(cnumpy
dtype
p2
(S'f8'
I0
I1
tRp3
(I3
S'<'
NNNI-1
I-1
I0
tbS'\x1c:\xac\x97\xb1\r\xd2?'
tRp4
g1
(g3
S'\x00\x00\x00\x00\x10n\x84?'
tRp5
(dp6
S'oob_score'
p7
I00
sS'max_features_use_preset'
p8
I01
sS'bootstrap'
p9
I01
sS'max_features_preset'
p10
S'sqrt'
p11
sS'min_samples_leaf'
p12
I10
sS'n_estimators'
p13
I8
sS'criterion'
p14
g1
(g2
(S'S7'
I0
I1
tRp15
(I3
S'|'
NNNI7
I1
I0
tbS'entropy'
tRp16
sS'min_samples_split'
p17
I16
sS'max_depth'
p18
I64
st.(cnumpy.core.multiarray
scalar
p1
(cnumpy
dtype
p2
(S'f8'
I0
I1
tRp3
(I3
S'<'
NNNI-1
I-1
I0
tbS'\xdc\xcc\\\xfa*\xbb\xce?'
tRp4
g1
(g3
S'ffff\xa6\xc5u?'
tRp5
(dp6
S'oob_score'
p7
I01
sS'max_features_use_preset'
p8
I01
sS'bootstrap'
p9
I01
sS'max_features_preset'
p10
NsS'min_samples_leaf'
p11
I16
sS'n_estimators'
p12
I3
sS'criterion'
p13
g1
(g2
(S'S4'
I0
I1
tRp14
(I3
S'|'
NNNI4
I1
I0
tbS'gini'
tRp15
sS'min_samples_split'
p16
I12
sS'max_depth'
p17
I83
st.(cnumpy.core.multiarray
scalar
p1
(cnumpy
dtype
p2
(S'f8'
I0
I1
tRp3
(I3
S'<'
NNNI-1
I-1
I0
tbS'R\x00\xa1\xc7\xfd7\xd9?'
tRp4
g1
(g3
S'\x11\x11\x11\x11a0\x86?'
tRp5
(dp6
S'max_features_use_preset'
p7
I01
sS'bootstrap'
p8
I00
sS'max_features_preset'
p9
NsS'min_samples_leaf'
p10
I4
sS'n_estimators'
p11
I8
sS'criterion'
p12
g1
(g2
(S'S7'
I0
I1
tRp13
(I3
S'|'
NNNI7
I1
I0
tbS'entropy'
tRp14
sS'min_samples_split'
p15
I20
sS'max_depth'
p16
I23
st.(cnumpy.core.multiarray
scalar
p1
(cnumpy
dtype
p2
(S'f8'
I0
I1
tRp3
(I3
S'<'
NNNI-1
I-1
I0
tbS'\xc1\xb1G\xcf\xac\xa3\xd2?'
tRp4
g1
(g3
S'3333\x938{?'
tRp5
(dp6
S'max_features_use_preset'
p7
I01
sS'bootstrap'
p8
I00
sS'max_features_preset'
p9
NsS'min_samples_leaf'
p10
I16
sS'n_estimators'
p11
I5
sS'criterion'
p12
g1
(g2
(S'S4'
I0
I1
tRp13
(I3
S'|'
NNNI4
I1
I0
tbS'gini'
tRp14
sS'min_samples_split'
p15
I12
sS'max_depth'
p16
I21
st.(cnumpy.core.multiarray
scalar
p1
(cnumpy
dtype
p2
(S'f8'
I0
I1
tRp3
(I3
S'<'
NNNI-1
I-1
I0
tbS'\x89\xffb\xa6\x81\xd1\xd7?'
tRp4
g1
(g3
S'\x11\x11\x11\x11\xd9J\xa0?'
tRp5
(dp6
S'max_features_use_preset'
p7
I01
sS'bootstrap'
p8
I00
sS'max_features_preset'
p9
S'log2'
p10
sS'min_samples_leaf'
p11
I4
sS'n_estimators'
p12
I19
sS'criterion'
p13
g1
(g2
(S'S7'
I0
I1
tRp14
(I3
S'|'
NNNI7
I1
I0
tbS'entropy'
tRp15
sS'min_samples_split'
p16
I18
sS'max_depth'
p17
I21
st.(cnumpy.core.multiarray
scalar
p1
(cnumpy
dtype
p2
(S'f8'
I0
I1
tRp3
(I3
S'<'
NNNI-1
I-1
I0
tbS'B59\x8f\x05\xdd\xd3?'
tRp4
g1
(g3
S'ffff\xa6nj?'
tRp5
(dp6
S'oob_score'
p7
I00
sS'max_features_use_preset'
p8
I01
sS'bootstrap'
p9
I01
sS'max_features_preset'
p10
NsS'min_samples_leaf'
p11
I11
sS'n_estimators'
p12
I2
sS'criterion'
p13
g1
(g2
(S'S4'
I0
I1
tRp14
(I3
S'|'
NNNI4
I1
I0
tbS'gini'
tRp15
sS'min_samples_split'
p16
I6
sS'max_depth'
p17
I16
st.(cnumpy.core.multiarray
scalar
p1
(cnumpy
dtype
p2
(S'f8'
I0
I1
tRp3
(I3
S'<'
NNNI-1
I-1
I0
tbS'%\xfe\xbd\x10\xf6\x8f\xd1?'
tRp4
g1
(g3
S'\x9a\x99\x99\x99\x99\x86j?'
tRp5
(dp6
S'max_features_use_preset'
p7
I01
sS'bootstrap'
p8
I00
sS'max_features_preset'
p9
S'log2'
p10
sS'min_samples_leaf'
p11
I19
sS'n_estimators'
p12
I2
sS'criterion'
p13
g1
(g2
(S'S4'
I0
I1
tRp14
(I3
S'|'
NNNI4
I1
I0
tbS'gini'
tRp15
sS'min_samples_split'
p16
I4
sS'max_depth'
p17
I7
st.(cnumpy.core.multiarray
scalar
p1
(cnumpy
dtype
p2
(S'f8'
I0
I1
tRp3
(I3
S'<'
NNNI-1
I-1
I0
tbS'y`\x16\xfeR?\xd6?'
tRp4
g1
(g3
S'UUUU5\xae\x82?'
tRp5
(dp6
S'max_features_use_preset'
p7
I01
sS'bootstrap'
p8
I00
sS'max_features_preset'
p9
NsS'min_samples_leaf'
p10
I13
sS'n_estimators'
p11
I7
sS'criterion'
p12
g1
(g2
(S'S7'
I0
I1
tRp13
(I3
S'|'
NNNI7
I1
I0
tbS'entropy'
tRp14
sS'min_samples_split'
p15
I12
sS'max_depth'
p16
I120
st.(cnumpy.core.multiarray
scalar
p1
(cnumpy
dtype
p2
(S'f8'
I0
I1
tRp3
(I3
S'<'
NNNI-1
I-1
I0
tbS"%\x17_I'x\xc2?"
tRp4
g1
(g3
S'\x00\x00\x00\x00\xa0Z\x94?'
tRp5
(dp6
S'max_features_use_preset'
p7
I01
sS'bootstrap'
p8
I00
sS'max_features_preset'
p9
S'log2'
p10
sS'min_samples_leaf'
p11
I20
sS'n_estimators'
p12
I18
sS'criterion'
p13
g1
(g2
(S'S7'
I0
I1
tRp14
(I3
S'|'
NNNI7
I1
I0
tbS'entropy'
tRp15
sS'min_samples_split'
p16
I20
sS'max_depth'
p17
I2
st.(cnumpy.core.multiarray
scalar
p1
(cnumpy
dtype
p2
(S'f8'
I0
I1
tRp3
(I3
S'<'
NNNI-1
I-1
I0
tbS'\x8fz\xe8\xaa\x84\xfd\xd0?'
tRp4
g1
(g3
S'UUUU\x95\xce\x84?'
tRp5
(dp6
S'max_features_sample'
p7
F0.66538803264168278
sS'max_features_use_preset'
p8
I00
sS'bootstrap'
p9
I00
sS'min_samples_leaf'
p10
I17
sS'n_estimators'
p11
I8
sS'criterion'
p12
g1
(g2
(S'S4'
I0
I1
tRp13
(I3
S'|'
NNNI4
I1
I0
tbS'gini'
tRp14
sS'min_samples_split'
p15
I9
sS'max_depth'
p16
I96
st.(cnumpy.core.multiarray
scalar
p1
(cnumpy
dtype
p2
(S'f8'
I0
I1
tRp3
(I3
S'<'
NNNI-1
I-1
I0
tbS'PD\x844#\xf5\xdc?'
tRp4
g1
(g3
S'\x11\x11\x11\x11\x11\xa0l?'
tRp5
(dp6
S'oob_score'
p7
I00
sS'max_features_use_preset'
p8
I01
sS'bootstrap'
p9
I01
sS'max_features_preset'
p10
NsS'min_samples_leaf'
p11
I2
sS'n_estimators'
p12
I2
sS'criterion'
p13
g1
(g2
(S'S7'
I0
I1
tRp14
(I3
S'|'
NNNI7
I1
I0
tbS'entropy'
tRp15
sS'min_samples_split'
p16
I9
sS'max_depth'
p17
I24
st.(cnumpy.core.multiarray
scalar
p1
(cnumpy
dtype
p2
(S'f8'
I0
I1
tRp3
(I3
S'<'
NNNI-1
I-1
I0
tbS'\xd1[z\x99\xe5m\xd3?'
tRp4
g1
(g3
S'3333\x03E\x80?'
tRp5
(dp6
S'oob_score'
p7
I00
sS'max_features_use_preset'
p8
I00
sS'bootstrap'
p9
I01
sS'max_features_sample'
p10
F0.81875384509352955
sS'min_samples_leaf'
p11
I9
sS'n_estimators'
p12
I6
sS'criterion'
p13
g1
(g2
(S'S7'
I0
I1
tRp14
(I3
S'|'
NNNI7
I1
I0
tbS'entropy'
tRp15
sS'min_samples_split'
p16
I7
sS'max_depth'
p17
I5
st.(cnumpy.core.multiarray
scalar
p1
(cnumpy
dtype
p2
(S'f8'
I0
I1
tRp3
(I3
S'<'
NNNI-1
I-1
I0
tbS'\xc2\x9b\xf8\x1bS\xf6\xd4?'
tRp4
g1
(g3
S'\xbc\xbb\xbb\xbbS\xd5\x96?'
tRp5
(dp6
S'oob_score'
p7
I00
sS'max_features_use_preset'
p8
I00
sS'bootstrap'
p9
I01
sS'max_features_sample'
p10
F0.54781197363494183
sS'min_samples_leaf'
p11
I7
sS'n_estimators'
p12
I19
sS'criterion'
p13
g1
(g2
(S'S7'
I0
I1
tRp14
(I3
S'|'
NNNI7
I1
I0
tbS'entropy'
tRp15
sS'min_samples_split'
p16
I13
sS'max_depth'
p17
I104
st.(cnumpy.core.multiarray
scalar
p1
(cnumpy
dtype
p2
(S'f8'
I0
I1
tRp3
(I3
S'<'
NNNI-1
I-1
I0
tbS'x\xa7\xc5\xc2\xf4\x1c\xd0?'
tRp4
g1
(g3
S'\xcd\xcc\xcc\xcc\\\x00\x9c?'
tRp5
(dp6
S'max_features_use_preset'
p7
I01
sS'bootstrap'
p8
I00
sS'max_features_preset'
p9
S'log2'
p10
sS'min_samples_leaf'
p11
I17
sS'n_estimators'
p12
I18
sS'criterion'
p13
g1
(g2
(S'S4'
I0
I1
tRp14
(I3
S'|'
NNNI4
I1
I0
tbS'gini'
tRp15
sS'min_samples_split'
p16
I20
sS'max_depth'
p17
I19
st.(cnumpy.core.multiarray
scalar
p1
(cnumpy
dtype
p2
(S'f8'
I0
I1
tRp3
(I3
S'<'
NNNI-1
I-1
I0
tbS'\x91\t^X<q\xd2?'
tRp4
g1
(g3
S'\xab\xaa\xaa\xaa:\x94\x97?'
tRp5
(dp6
S'max_features_sample'
p7
F0.98854447604345597
sS'max_features_use_preset'
p8
I00
sS'bootstrap'
p9
I00
sS'min_samples_leaf'
p10
I17
sS'n_estimators'
p11
I20
sS'criterion'
p12
g1
(g2
(S'S4'
I0
I1
tRp13
(I3
S'|'
NNNI4
I1
I0
tbS'gini'
tRp14
sS'min_samples_split'
p15
I20
sS'max_depth'
p16
I21
st.(cnumpy.core.multiarray
scalar
p1
(cnumpy
dtype
p2
(S'f8'
I0
I1
tRp3
(I3
S'<'
NNNI-1
I-1
I0
tbS'\xc5\xd7\xba\x94\x87\x97\xc0?'
tRp4
g1
(g3
S'\xbc\xbb\xbb\xbb\xd3\xdf\x90?'
tRp5
(dp6
S'max_features_sample'
p7
F0.40091330138762848
sS'max_features_use_preset'
p8
I00
sS'bootstrap'
p9
I00
sS'min_samples_leaf'
p10
I13
sS'n_estimators'
p11
I15
sS'criterion'
p12
g1
(g2
(S'S4'
I0
I1
tRp13
(I3
S'|'
NNNI4
I1
I0
tbS'gini'
tRp14
sS'min_samples_split'
p15
I16
sS'max_depth'
p16
I2
st.(cnumpy.core.multiarray
scalar
p1
(cnumpy
dtype
p2
(S'f8'
I0
I1
tRp3
(I3
S'<'
NNNI-1
I-1
I0
tbS'\x91\xce\x07\xdb*~\xab?'
tRp4
g1
(g3
S'\x00\x00\x00\x00\x00^\x90?'
tRp5
(dp6
S'oob_score'
p7
I00
sS'max_features_use_preset'
p8
I00
sS'bootstrap'
p9
I01
sS'max_features_sample'
p10
F0.4096560910268795
sS'min_samples_leaf'
p11
I16
sS'n_estimators'
p12
I15
sS'criterion'
p13
g1
(g2
(S'S7'
I0
I1
tRp14
(I3
S'|'
NNNI7
I1
I0
tbS'entropy'
tRp15
sS'min_samples_split'
p16
I12
sS'max_depth'
p17
I1
st.(cnumpy.core.multiarray
scalar
p1
(cnumpy
dtype
p2
(S'f8'
I0
I1
tRp3
(I3
S'<'
NNNI-1
I-1
I0
tbS'c\\\xce\x82\xf2\x03\xde?'
tRp4
g1
(g3
S'3333+\x01\x94?'
tRp5
(dp6
S'max_features_use_preset'
p7
I01
sS'bootstrap'
p8
I00
sS'max_features_preset'
p9
S'sqrt'
p10
sS'min_samples_leaf'
p11
I2
sS'n_estimators'
p12
I16
sS'criterion'
p13
g1
(g2
(S'S4'
I0
I1
tRp14
(I3
S'|'
NNNI4
I1
I0
tbS'gini'
tRp15
sS'min_samples_split'
p16
I8
sS'max_depth'
p17
I77
st.(cnumpy.core.multiarray
scalar
p1
(cnumpy
dtype
p2
(S'f8'
I0
I1
tRp3
(I3
S'<'
NNNI-1
I-1
I0
tbS'Y8f\x87M\xbf\xd3?'
tRp4
g1
(g3
S'\xef\xee\xee\xee\xae\xbd\x88?'
tRp5
(dp6
S'oob_score'
p7
I00
sS'max_features_use_preset'
p8
I01
sS'bootstrap'
p9
I01
sS'max_features_preset'
p10
S'log2'
p11
sS'min_samples_leaf'
p12
I8
sS'n_estimators'
p13
I10
sS'criterion'
p14
g1
(g2
(S'S7'
I0
I1
tRp15
(I3
S'|'
NNNI7
I1
I0
tbS'entropy'
tRp16
sS'min_samples_split'
p17
I4
sS'max_depth'
p18
I15
st.(cnumpy.core.multiarray
scalar
p1
(cnumpy
dtype
p2
(S'f8'
I0
I1
tRp3
(I3
S'<'
NNNI-1
I-1
I0
tbS'\rW\xdf\xe1\xd8\xee\xcd?'
tRp4
g1
(g3
S'\x11\x11\x11\x11q\x0cr?'
tRp5
(dp6
S'oob_score'
p7
I00
sS'max_features_use_preset'
p8
I01
sS'bootstrap'
p9
I01
sS'max_features_preset'
p10
S'log2'
p11
sS'min_samples_leaf'
p12
I13
sS'n_estimators'
p13
I3
sS'criterion'
p14
g1
(g2
(S'S7'
I0
I1
tRp15
(I3
S'|'
NNNI7
I1
I0
tbS'entropy'
tRp16
sS'min_samples_split'
p17
I6
sS'max_depth'
p18
I4
st.(cnumpy.core.multiarray
scalar
p1
(cnumpy
dtype
p2
(S'f8'
I0
I1
tRp3
(I3
S'<'
NNNI-1
I-1
I0
tbS'\xfe~\x10\xdb\xb1\xee\xd8?'
tRp4
g1
(g3
S'wwww\xf7\x96l?'
tRp5
(dp6
S'oob_score'
p7
I00
sS'max_features_use_preset'
p8
I01
sS'bootstrap'
p9
I01
sS'max_features_preset'
p10
S'sqrt'
p11
sS'min_samples_leaf'
p12
I4
sS'n_estimators'
p13
I2
sS'criterion'
p14
g1
(g2
(S'S7'
I0
I1
tRp15
(I3
S'|'
NNNI7
I1
I0
tbS'entropy'
tRp16
sS'min_samples_split'
p17
I6
sS'max_depth'
p18
I8
st.(cnumpy.core.multiarray
scalar
p1
(cnumpy
dtype
p2
(S'f8'
I0
I1
tRp3
(I3
S'<'
NNNI-1
I-1
I0
tbS'\xb3\xfd|S\x00\x07\xd1?'
tRp4
g1
(g3
S'\x9a\x99\x99\x99\x19\xa0{?'
tRp5
(dp6
S'max_features_sample'
p7
F0.46571938640865573
sS'max_features_use_preset'
p8
I00
sS'bootstrap'
p9
I00
sS'min_samples_leaf'
p10
I11
sS'n_estimators'
p11
I5
sS'criterion'
p12
g1
(g2
(S'S7'
I0
I1
tRp13
(I3
S'|'
NNNI7
I1
I0
tbS'entropy'
tRp14
sS'min_samples_split'
p15
I13
sS'max_depth'
p16
I78
st.