(lp1
(dp2
S'loss'
p3
cnumpy.core.multiarray
scalar
p4
(cnumpy
dtype
p5
(S'S8'
I0
I1
tRp6
(I3
S'|'
NNNI8
I1
I0
tbS'deviance'
tRp7
sS'max_features_use_preset'
p8
I01
sS'learning_rate'
p9
F0.16826845637682064
sS'max_features_preset'
p10
S'log2'
p11
sS'min_samples_leaf'
p12
I20
sS'n_estimators'
p13
I6
sS'min_samples_split'
p14
I5
sS'max_depth'
p15
I5
sa(dp16
S'loss'
p17
g4
(g5
(S'S8'
I0
I1
tRp18
(I3
S'|'
NNNI8
I1
I0
tbS'deviance'
tRp19
sS'max_features_use_preset'
p20
I01
sS'learning_rate'
p21
F0.587031910507403
sS'max_features_preset'
p22
S'log2'
p23
sS'min_samples_leaf'
p24
I5
sS'n_estimators'
p25
I6
sS'min_samples_split'
p26
I19
sS'max_depth'
p27
I61
sa(dp28
S'loss'
p29
g4
(g5
(S'S8'
I0
I1
tRp30
(I3
S'|'
NNNI8
I1
I0
tbS'deviance'
tRp31
sS'max_features_use_preset'
p32
I01
sS'learning_rate'
p33
F0.66306158822599437
sS'max_features_preset'
p34
S'log2'
p35
sS'min_samples_leaf'
p36
I6
sS'n_estimators'
p37
I14
sS'min_samples_split'
p38
I2
sS'max_depth'
p39
I6
sa(dp40
S'loss'
p41
g4
(g5
(S'S8'
I0
I1
tRp42
(I3
S'|'
NNNI8
I1
I0
tbS'deviance'
tRp43
sS'max_features_use_preset'
p44
I01
sS'learning_rate'
p45
F0.41516781383479484
sS'max_features_preset'
p46
S'log2'
p47
sS'min_samples_leaf'
p48
I11
sS'n_estimators'
p49
I19
sS'min_samples_split'
p50
I18
sS'max_depth'
p51
I42
sa(dp52
S'loss'
p53
g4
(g5
(S'S8'
I0
I1
tRp54
(I3
S'|'
NNNI8
I1
I0
tbS'deviance'
tRp55
sS'max_features_use_preset'
p56
I01
sS'learning_rate'
p57
F0.79223581340846949
sS'max_features_preset'
p58
S'log2'
p59
sS'min_samples_leaf'
p60
I1
sS'n_estimators'
p61
I6
sS'min_samples_split'
p62
I11
sS'max_depth'
p63
I104
sa(dp64
S'loss'
p65
g4
(g5
(S'S8'
I0
I1
tRp66
(I3
S'|'
NNNI8
I1
I0
tbS'deviance'
tRp67
sS'max_features_use_preset'
p68
I01
sS'learning_rate'
p69
F0.78545306661039271
sS'max_features_preset'
p70
S'log2'
p71
sS'min_samples_leaf'
p72
I11
sS'n_estimators'
p73
I7
sS'min_samples_split'
p74
I2
sS'max_depth'
p75
I2
sa(dp76
S'loss'
p77
g4
(g5
(S'S8'
I0
I1
tRp78
(I3
S'|'
NNNI8
I1
I0
tbS'deviance'
tRp79
sS'max_features_use_preset'
p80
I01
sS'learning_rate'
p81
F0.80477785967289517
sS'max_features_preset'
p82
S'log2'
p83
sS'min_samples_leaf'
p84
I19
sS'n_estimators'
p85
I19
sS'min_samples_split'
p86
I19
sS'max_depth'
p87
I6
sa(dp88
S'loss'
p89
g4
(g5
(S'S8'
I0
I1
tRp90
(I3
S'|'
NNNI8
I1
I0
tbS'deviance'
tRp91
sS'max_features_use_preset'
p92
I01
sS'learning_rate'
p93
F0.079957521774856044
sS'max_features_preset'
p94
S'log2'
p95
sS'min_samples_leaf'
p96
I15
sS'n_estimators'
p97
I13
sS'min_samples_split'
p98
I9
sS'max_depth'
p99
I10
sa(dp100
S'loss'
p101
g4
(g5
(S'S8'
I0
I1
tRp102
(I3
S'|'
NNNI8
I1
I0
tbS'deviance'
tRp103
sS'max_features_use_preset'
p104
I01
sS'learning_rate'
p105
F0.38540247310405973
sS'max_features_preset'
p106
S'sqrt'
p107
sS'min_samples_leaf'
p108
I10
sS'n_estimators'
p109
I13
sS'min_samples_split'
p110
I16
sS'max_depth'
p111
I4
sa(dp112
S'loss'
p113
g4
(g5
(S'S8'
I0
I1
tRp114
(I3
S'|'
NNNI8
I1
I0
tbS'deviance'
tRp115
sS'max_features_use_preset'
p116
I01
sS'learning_rate'
p117
F0.35169917256922967
sS'max_features_preset'
p118
S'sqrt'
p119
sS'min_samples_leaf'
p120
I1
sS'n_estimators'
p121
I5
sS'min_samples_split'
p122
I5
sS'max_depth'
p123
I8
sa(dp124
S'loss'
p125
g4
(g5
(S'S8'
I0
I1
tRp126
(I3
S'|'
NNNI8
I1
I0
tbS'deviance'
tRp127
sS'max_features_use_preset'
p128
I01
sS'learning_rate'
p129
F0.53325211759461988
sS'max_features_preset'
p130
S'sqrt'
p131
sS'min_samples_leaf'
p132
I9
sS'n_estimators'
p133
I19
sS'min_samples_split'
p134
I16
sS'max_depth'
p135
I3
sa(dp136
S'loss'
p137
g4
(g5
(S'S8'
I0
I1
tRp138
(I3
S'|'
NNNI8
I1
I0
tbS'deviance'
tRp139
sS'max_features_use_preset'
p140
I01
sS'learning_rate'
p141
F0.69683789374967153
sS'max_features_preset'
p142
S'sqrt'
p143
sS'min_samples_leaf'
p144
I16
sS'n_estimators'
p145
I4
sS'min_samples_split'
p146
I3
sS'max_depth'
p147
I6
sa(dp148
S'loss'
p149
g4
(g5
(S'S8'
I0
I1
tRp150
(I3
S'|'
NNNI8
I1
I0
tbS'deviance'
tRp151
sS'max_features_use_preset'
p152
I01
sS'learning_rate'
p153
F0.26020196798899975
sS'max_features_preset'
p154
S'sqrt'
p155
sS'min_samples_leaf'
p156
I9
sS'n_estimators'
p157
I11
sS'min_samples_split'
p158
I19
sS'max_depth'
p159
I1
sa(dp160
S'loss'
p161
g4
(g5
(S'S8'
I0
I1
tRp162
(I3
S'|'
NNNI8
I1
I0
tbS'deviance'
tRp163
sS'max_features_use_preset'
p164
I01
sS'learning_rate'
p165
F0.78597698560757401
sS'max_features_preset'
p166
NsS'min_samples_leaf'
p167
I1
sS'n_estimators'
p168
I13
sS'min_samples_split'
p169
I13
sS'max_depth'
p170
I1
sa(dp171
S'loss'
p172
g4
(g5
(S'S8'
I0
I1
tRp173
(I3
S'|'
NNNI8
I1
I0
tbS'deviance'
tRp174
sS'max_features_use_preset'
p175
I01
sS'learning_rate'
p176
F0.83205834702952131
sS'max_features_preset'
p177
NsS'min_samples_leaf'
p178
I10
sS'n_estimators'
p179
I8
sS'min_samples_split'
p180
I16
sS'max_depth'
p181
I77
sa(dp182
S'loss'
p183
g4
(g5
(S'S8'
I0
I1
tRp184
(I3
S'|'
NNNI8
I1
I0
tbS'deviance'
tRp185
sS'max_features_use_preset'
p186
I01
sS'learning_rate'
p187
F0.6289766109362348
sS'max_features_preset'
p188
NsS'min_samples_leaf'
p189
I8
sS'n_estimators'
p190
I8
sS'min_samples_split'
p191
I20
sS'max_depth'
p192
I109
sa(dp193
S'loss'
p194
g4
(g5
(S'S8'
I0
I1
tRp195
(I3
S'|'
NNNI8
I1
I0
tbS'deviance'
tRp196
sS'max_features_use_preset'
p197
I01
sS'learning_rate'
p198
F0.70705686824909431
sS'max_features_preset'
p199
NsS'min_samples_leaf'
p200
I7
sS'n_estimators'
p201
I5
sS'min_samples_split'
p202
I17
sS'max_depth'
p203
I18
sa(dp204
S'loss'
p205
g4
(g5
(S'S8'
I0
I1
tRp206
(I3
S'|'
NNNI8
I1
I0
tbS'deviance'
tRp207
sS'max_features_use_preset'
p208
I01
sS'learning_rate'
p209
F0.75520263879014338
sS'max_features_preset'
p210
NsS'min_samples_leaf'
p211
I8
sS'n_estimators'
p212
I5
sS'min_samples_split'
p213
I4
sS'max_depth'
p214
I80
sa(dp215
S'loss'
p216
g4
(g5
(S'S8'
I0
I1
tRp217
(I3
S'|'
NNNI8
I1
I0
tbS'deviance'
tRp218
sS'max_features_sample'
p219
F0.58233101020888856
sS'max_features_use_preset'
p220
I00
sS'learning_rate'
p221
F0.62883041245212579
sS'min_samples_leaf'
p222
I7
sS'n_estimators'
p223
I13
sS'min_samples_split'
p224
I7
sS'max_depth'
p225
I18
sa(dp226
S'loss'
p227
g4
(g5
(S'S8'
I0
I1
tRp228
(I3
S'|'
NNNI8
I1
I0
tbS'deviance'
tRp229
sS'max_features_sample'
p230
F0.35927950021823329
sS'max_features_use_preset'
p231
I00
sS'learning_rate'
p232
F0.55107882530721586
sS'min_samples_leaf'
p233
I6
sS'n_estimators'
p234
I14
sS'min_samples_split'
p235
I6
sS'max_depth'
p236
I56
sa(dp237
S'loss'
p238
g4
(g5
(S'S8'
I0
I1
tRp239
(I3
S'|'
NNNI8
I1
I0
tbS'deviance'
tRp240
sS'max_features_sample'
p241
F0.9532440917027909
sS'max_features_use_preset'
p242
I00
sS'learning_rate'
p243
F0.85781075382960137
sS'min_samples_leaf'
p244
I13
sS'n_estimators'
p245
I12
sS'min_samples_split'
p246
I5
sS'max_depth'
p247
I21
sa(dp248
S'loss'
p249
g4
(g5
(S'S8'
I0
I1
tRp250
(I3
S'|'
NNNI8
I1
I0
tbS'deviance'
tRp251
sS'max_features_sample'
p252
F0.27799242237754829
sS'max_features_use_preset'
p253
I00
sS'learning_rate'
p254
F0.38405199523709588
sS'min_samples_leaf'
p255
I13
sS'n_estimators'
p256
I19
sS'min_samples_split'
p257
I13
sS'max_depth'
p258
I8
sa(dp259
S'loss'
p260
g4
(g5
(S'S8'
I0
I1
tRp261
(I3
S'|'
NNNI8
I1
I0
tbS'deviance'
tRp262
sS'max_features_sample'
p263
F0.50859422145026978
sS'max_features_use_preset'
p264
I00
sS'learning_rate'
p265
F0.21464875926614069
sS'min_samples_leaf'
p266
I12
sS'n_estimators'
p267
I2
sS'min_samples_split'
p268
I16
sS'max_depth'
p269
I70
sa(dp270
S'loss'
p271
g4
(g5
(S'S8'
I0
I1
tRp272
(I3
S'|'
NNNI8
I1
I0
tbS'deviance'
tRp273
sS'max_features_sample'
p274
F0.75967683143834208
sS'max_features_use_preset'
p275
I00
sS'learning_rate'
p276
F0.40124407993027122
sS'min_samples_leaf'
p277
I19
sS'n_estimators'
p278
I5
sS'min_samples_split'
p279
I15
sS'max_depth'
p280
I1
sa(dp281
S'loss'
p282
g4
(g5
(S'S8'
I0
I1
tRp283
(I3
S'|'
NNNI8
I1
I0
tbS'deviance'
tRp284
sS'max_features_sample'
p285
F0.47975721666903359
sS'max_features_use_preset'
p286
I00
sS'learning_rate'
p287
F0.50682175373625937
sS'min_samples_leaf'
p288
I17
sS'n_estimators'
p289
I18
sS'min_samples_split'
p290
I18
sS'max_depth'
p291
I78
sa(dp292
S'loss'
p293
g4
(g5
(S'S8'
I0
I1
tRp294
(I3
S'|'
NNNI8
I1
I0
tbS'deviance'
tRp295
sS'max_features_sample'
p296
F0.42422135265239391
sS'max_features_use_preset'
p297
I00
sS'learning_rate'
p298
F0.96935434035701085
sS'min_samples_leaf'
p299
I11
sS'n_estimators'
p300
I6
sS'min_samples_split'
p301
I6
sS'max_depth'
p302
I3
sa.