(lp1
(dp2
S'n_neighbors'
p3
I2
sS'metric'
p4
cnumpy.core.multiarray
scalar
p5
(cnumpy
dtype
p6
(S'S9'
I0
I1
tRp7
(I3
S'|'
NNNI9
I1
I0
tbS'manhattan'
tRp8
sS'weights'
p9
g5
(g6
(S'S8'
I0
I1
tRp10
(I3
S'|'
NNNI8
I1
I0
tbS'distance'
tRp11
sS'leaf_size'
p12
I42
sS'algorithm'
p13
g5
(g6
(S'S7'
I0
I1
tRp14
(I3
S'|'
NNNI7
I1
I0
tbS'kd_tree'
tRp15
sa(dp16
S'n_neighbors'
p17
I3
sS'metric'
p18
g5
(g6
(S'S9'
I0
I1
tRp19
(I3
S'|'
NNNI9
I1
I0
tbS'manhattan'
tRp20
sS'weights'
p21
g5
(g6
(S'S8'
I0
I1
tRp22
(I3
S'|'
NNNI8
I1
I0
tbS'distance'
tRp23
sS'leaf_size'
p24
I38
sS'algorithm'
p25
g5
(g6
(S'S7'
I0
I1
tRp26
(I3
S'|'
NNNI7
I1
I0
tbS'kd_tree'
tRp27
sa(dp28
S'n_neighbors'
p29
I11
sS'metric'
p30
g5
(g6
(S'S9'
I0
I1
tRp31
(I3
S'|'
NNNI9
I1
I0
tbS'manhattan'
tRp32
sS'weights'
p33
g5
(g6
(S'S8'
I0
I1
tRp34
(I3
S'|'
NNNI8
I1
I0
tbS'distance'
tRp35
sS'leaf_size'
p36
I20
sS'algorithm'
p37
g5
(g6
(S'S7'
I0
I1
tRp38
(I3
S'|'
NNNI7
I1
I0
tbS'kd_tree'
tRp39
sa(dp40
S'n_neighbors'
p41
I8
sS'metric'
p42
g5
(g6
(S'S9'
I0
I1
tRp43
(I3
S'|'
NNNI9
I1
I0
tbS'chebyshev'
tRp44
sS'weights'
p45
g5
(g6
(S'S7'
I0
I1
tRp46
(I3
S'|'
NNNI7
I1
I0
tbS'uniform'
tRp47
sS'leaf_size'
p48
I18
sS'algorithm'
p49
g5
(g6
(S'S7'
I0
I1
tRp50
(I3
S'|'
NNNI7
I1
I0
tbS'kd_tree'
tRp51
sa(dp52
S'n_neighbors'
p53
I2
sS'metric'
p54
g5
(g6
(S'S9'
I0
I1
tRp55
(I3
S'|'
NNNI9
I1
I0
tbS'chebyshev'
tRp56
sS'weights'
p57
g5
(g6
(S'S8'
I0
I1
tRp58
(I3
S'|'
NNNI8
I1
I0
tbS'distance'
tRp59
sS'algorithm'
p60
g5
(g6
(S'S5'
I0
I1
tRp61
(I3
S'|'
NNNI5
I1
I0
tbS'brute'
tRp62
sa(dp63
S'n_neighbors'
p64
I4
sS'metric'
p65
g5
(g6
(S'S9'
I0
I1
tRp66
(I3
S'|'
NNNI9
I1
I0
tbS'chebyshev'
tRp67
sS'weights'
p68
g5
(g6
(S'S8'
I0
I1
tRp69
(I3
S'|'
NNNI8
I1
I0
tbS'distance'
tRp70
sS'algorithm'
p71
g5
(g6
(S'S5'
I0
I1
tRp72
(I3
S'|'
NNNI5
I1
I0
tbS'brute'
tRp73
sa(dp74
S'n_neighbors'
p75
I3
sS'metric'
p76
g5
(g6
(S'S9'
I0
I1
tRp77
(I3
S'|'
NNNI9
I1
I0
tbS'euclidean'
tRp78
sS'weights'
p79
g5
(g6
(S'S8'
I0
I1
tRp80
(I3
S'|'
NNNI8
I1
I0
tbS'distance'
tRp81
sS'algorithm'
p82
g5
(g6
(S'S5'
I0
I1
tRp83
(I3
S'|'
NNNI5
I1
I0
tbS'brute'
tRp84
sa(dp85
S'n_neighbors'
p86
I3
sS'metric'
p87
g5
(g6
(S'S9'
I0
I1
tRp88
(I3
S'|'
NNNI9
I1
I0
tbS'manhattan'
tRp89
sS'weights'
p90
g5
(g6
(S'S8'
I0
I1
tRp91
(I3
S'|'
NNNI8
I1
I0
tbS'distance'
tRp92
sS'algorithm'
p93
g5
(g6
(S'S5'
I0
I1
tRp94
(I3
S'|'
NNNI5
I1
I0
tbS'brute'
tRp95
sa(dp96
S'p'
I17
sS'metric'
p97
g5
(g6
(S'S9'
I0
I1
tRp98
(I3
S'|'
NNNI9
I1
I0
tbS'minkowski'
tRp99
sS'weights'
p100
g5
(g6
(S'S8'
I0
I1
tRp101
(I3
S'|'
NNNI8
I1
I0
tbS'distance'
tRp102
sS'algorithm'
p103
g5
(g6
(S'S5'
I0
I1
tRp104
(I3
S'|'
NNNI5
I1
I0
tbS'brute'
tRp105
sS'n_neighbors'
p106
I8
sa(dp107
S'n_neighbors'
p108
I4
sS'metric'
p109
g5
(g6
(S'S9'
I0
I1
tRp110
(I3
S'|'
NNNI9
I1
I0
tbS'euclidean'
tRp111
sS'weights'
p112
g5
(g6
(S'S7'
I0
I1
tRp113
(I3
S'|'
NNNI7
I1
I0
tbS'uniform'
tRp114
sS'algorithm'
p115
g5
(g6
(S'S5'
I0
I1
tRp116
(I3
S'|'
NNNI5
I1
I0
tbS'brute'
tRp117
sa(dp118
S'n_neighbors'
p119
I5
sS'metric'
p120
g5
(g6
(S'S9'
I0
I1
tRp121
(I3
S'|'
NNNI9
I1
I0
tbS'euclidean'
tRp122
sS'weights'
p123
g5
(g6
(S'S7'
I0
I1
tRp124
(I3
S'|'
NNNI7
I1
I0
tbS'uniform'
tRp125
sS'algorithm'
p126
g5
(g6
(S'S5'
I0
I1
tRp127
(I3
S'|'
NNNI5
I1
I0
tbS'brute'
tRp128
sa(dp129
S'n_neighbors'
p130
I2
sS'metric'
p131
g5
(g6
(S'S9'
I0
I1
tRp132
(I3
S'|'
NNNI9
I1
I0
tbS'euclidean'
tRp133
sS'weights'
p134
g5
(g6
(S'S7'
I0
I1
tRp135
(I3
S'|'
NNNI7
I1
I0
tbS'uniform'
tRp136
sS'algorithm'
p137
g5
(g6
(S'S5'
I0
I1
tRp138
(I3
S'|'
NNNI5
I1
I0
tbS'brute'
tRp139
sa(dp140
S'n_neighbors'
p141
I3
sS'metric'
p142
g5
(g6
(S'S9'
I0
I1
tRp143
(I3
S'|'
NNNI9
I1
I0
tbS'manhattan'
tRp144
sS'weights'
p145
g5
(g6
(S'S7'
I0
I1
tRp146
(I3
S'|'
NNNI7
I1
I0
tbS'uniform'
tRp147
sS'algorithm'
p148
g5
(g6
(S'S5'
I0
I1
tRp149
(I3
S'|'
NNNI5
I1
I0
tbS'brute'
tRp150
sa(dp151
S'n_neighbors'
p152
I4
sS'metric'
p153
g5
(g6
(S'S9'
I0
I1
tRp154
(I3
S'|'
NNNI9
I1
I0
tbS'manhattan'
tRp155
sS'weights'
p156
g5
(g6
(S'S7'
I0
I1
tRp157
(I3
S'|'
NNNI7
I1
I0
tbS'uniform'
tRp158
sS'algorithm'
p159
g5
(g6
(S'S5'
I0
I1
tRp160
(I3
S'|'
NNNI5
I1
I0
tbS'brute'
tRp161
sa(dp162
S'p'
I12
sS'metric'
p163
g5
(g6
(S'S9'
I0
I1
tRp164
(I3
S'|'
NNNI9
I1
I0
tbS'minkowski'
tRp165
sS'weights'
p166
g5
(g6
(S'S7'
I0
I1
tRp167
(I3
S'|'
NNNI7
I1
I0
tbS'uniform'
tRp168
sS'algorithm'
p169
g5
(g6
(S'S5'
I0
I1
tRp170
(I3
S'|'
NNNI5
I1
I0
tbS'brute'
tRp171
sS'n_neighbors'
p172
I23
sa(dp173
S'n_neighbors'
p174
I8
sS'metric'
p175
g5
(g6
(S'S9'
I0
I1
tRp176
(I3
S'|'
NNNI9
I1
I0
tbS'chebyshev'
tRp177
sS'weights'
p178
g5
(g6
(S'S8'
I0
I1
tRp179
(I3
S'|'
NNNI8
I1
I0
tbS'distance'
tRp180
sS'leaf_size'
p181
I15
sS'algorithm'
p182
g5
(g6
(S'S9'
I0
I1
tRp183
(I3
S'|'
NNNI9
I1
I0
tbS'ball_tree'
tRp184
sa(dp185
S'n_neighbors'
p186
I1
sS'metric'
p187
g5
(g6
(S'S9'
I0
I1
tRp188
(I3
S'|'
NNNI9
I1
I0
tbS'chebyshev'
tRp189
sS'weights'
p190
g5
(g6
(S'S8'
I0
I1
tRp191
(I3
S'|'
NNNI8
I1
I0
tbS'distance'
tRp192
sS'leaf_size'
p193
I42
sS'algorithm'
p194
g5
(g6
(S'S9'
I0
I1
tRp195
(I3
S'|'
NNNI9
I1
I0
tbS'ball_tree'
tRp196
sa(dp197
S'n_neighbors'
p198
I10
sS'metric'
p199
g5
(g6
(S'S9'
I0
I1
tRp200
(I3
S'|'
NNNI9
I1
I0
tbS'chebyshev'
tRp201
sS'weights'
p202
g5
(g6
(S'S8'
I0
I1
tRp203
(I3
S'|'
NNNI8
I1
I0
tbS'distance'
tRp204
sS'leaf_size'
p205
I32
sS'algorithm'
p206
g5
(g6
(S'S9'
I0
I1
tRp207
(I3
S'|'
NNNI9
I1
I0
tbS'ball_tree'
tRp208
sa(dp209
S'n_neighbors'
p210
I2
sS'metric'
p211
g5
(g6
(S'S9'
I0
I1
tRp212
(I3
S'|'
NNNI9
I1
I0
tbS'euclidean'
tRp213
sS'weights'
p214
g5
(g6
(S'S8'
I0
I1
tRp215
(I3
S'|'
NNNI8
I1
I0
tbS'distance'
tRp216
sS'leaf_size'
p217
I35
sS'algorithm'
p218
g5
(g6
(S'S9'
I0
I1
tRp219
(I3
S'|'
NNNI9
I1
I0
tbS'ball_tree'
tRp220
sa(dp221
S'n_neighbors'
p222
I1
sS'metric'
p223
g5
(g6
(S'S9'
I0
I1
tRp224
(I3
S'|'
NNNI9
I1
I0
tbS'euclidean'
tRp225
sS'weights'
p226
g5
(g6
(S'S8'
I0
I1
tRp227
(I3
S'|'
NNNI8
I1
I0
tbS'distance'
tRp228
sS'leaf_size'
p229
I20
sS'algorithm'
p230
g5
(g6
(S'S9'
I0
I1
tRp231
(I3
S'|'
NNNI9
I1
I0
tbS'ball_tree'
tRp232
sa(dp233
S'n_neighbors'
p234
I2
sS'metric'
p235
g5
(g6
(S'S9'
I0
I1
tRp236
(I3
S'|'
NNNI9
I1
I0
tbS'manhattan'
tRp237
sS'weights'
p238
g5
(g6
(S'S8'
I0
I1
tRp239
(I3
S'|'
NNNI8
I1
I0
tbS'distance'
tRp240
sS'leaf_size'
p241
I26
sS'algorithm'
p242
g5
(g6
(S'S9'
I0
I1
tRp243
(I3
S'|'
NNNI9
I1
I0
tbS'ball_tree'
tRp244
sa(dp245
S'n_neighbors'
p246
I24
sS'algorithm'
p247
g5
(g6
(S'S9'
I0
I1
tRp248
(I3
S'|'
NNNI9
I1
I0
tbS'ball_tree'
tRp249
sS'metric'
p250
g5
(g6
(S'S9'
I0
I1
tRp251
(I3
S'|'
NNNI9
I1
I0
tbS'minkowski'
tRp252
sS'p'
I16
sS'weights'
p253
g5
(g6
(S'S8'
I0
I1
tRp254
(I3
S'|'
NNNI8
I1
I0
tbS'distance'
tRp255
sS'leaf_size'
p256
I39
sa(dp257
S'n_neighbors'
p258
I4
sS'metric'
p259
g5
(g6
(S'S9'
I0
I1
tRp260
(I3
S'|'
NNNI9
I1
I0
tbS'chebyshev'
tRp261
sS'weights'
p262
g5
(g6
(S'S7'
I0
I1
tRp263
(I3
S'|'
NNNI7
I1
I0
tbS'uniform'
tRp264
sS'leaf_size'
p265
I34
sS'algorithm'
p266
g5
(g6
(S'S9'
I0
I1
tRp267
(I3
S'|'
NNNI9
I1
I0
tbS'ball_tree'
tRp268
sa(dp269
S'n_neighbors'
p270
I9
sS'metric'
p271
g5
(g6
(S'S9'
I0
I1
tRp272
(I3
S'|'
NNNI9
I1
I0
tbS'euclidean'
tRp273
sS'weights'
p274
g5
(g6
(S'S7'
I0
I1
tRp275
(I3
S'|'
NNNI7
I1
I0
tbS'uniform'
tRp276
sS'leaf_size'
p277
I40
sS'algorithm'
p278
g5
(g6
(S'S9'
I0
I1
tRp279
(I3
S'|'
NNNI9
I1
I0
tbS'ball_tree'
tRp280
sa(dp281
S'n_neighbors'
p282
I14
sS'metric'
p283
g5
(g6
(S'S9'
I0
I1
tRp284
(I3
S'|'
NNNI9
I1
I0
tbS'manhattan'
tRp285
sS'weights'
p286
g5
(g6
(S'S7'
I0
I1
tRp287
(I3
S'|'
NNNI7
I1
I0
tbS'uniform'
tRp288
sS'leaf_size'
p289
I25
sS'algorithm'
p290
g5
(g6
(S'S9'
I0
I1
tRp291
(I3
S'|'
NNNI9
I1
I0
tbS'ball_tree'
tRp292
sa(dp293
S'n_neighbors'
p294
I1
sS'metric'
p295
g5
(g6
(S'S9'
I0
I1
tRp296
(I3
S'|'
NNNI9
I1
I0
tbS'manhattan'
tRp297
sS'weights'
p298
g5
(g6
(S'S7'
I0
I1
tRp299
(I3
S'|'
NNNI7
I1
I0
tbS'uniform'
tRp300
sS'leaf_size'
p301
I20
sS'algorithm'
p302
g5
(g6
(S'S9'
I0
I1
tRp303
(I3
S'|'
NNNI9
I1
I0
tbS'ball_tree'
tRp304
sa(dp305
S'n_neighbors'
p306
I11
sS'metric'
p307
g5
(g6
(S'S9'
I0
I1
tRp308
(I3
S'|'
NNNI9
I1
I0
tbS'manhattan'
tRp309
sS'weights'
p310
g5
(g6
(S'S7'
I0
I1
tRp311
(I3
S'|'
NNNI7
I1
I0
tbS'uniform'
tRp312
sS'leaf_size'
p313
I32
sS'algorithm'
p314
g5
(g6
(S'S9'
I0
I1
tRp315
(I3
S'|'
NNNI9
I1
I0
tbS'ball_tree'
tRp316
sa.