(cnumpy.core.multiarray
scalar
p1
(cnumpy
dtype
p2
(S'f8'
I0
I1
tRp3
(I3
S'<'
NNNI-1
I-1
I0
tbS',\x06\xe84\x91\xd6\xe4?'
tRp4
g1
(g3
S'\x11\x11\x11\x11\x01\x9a\x83?'
tRp5
(dp6
S'n_neighbors'
p7
I3
sS'metric'
p8
g1
(g2
(S'S9'
I0
I1
tRp9
(I3
S'|'
NNNI9
I1
I0
tbS'manhattan'
tRp10
sS'weights'
p11
g1
(g2
(S'S7'
I0
I1
tRp12
(I3
S'|'
NNNI7
I1
I0
tbS'uniform'
tRp13
sS'algorithm'
p14
g1
(g2
(S'S5'
I0
I1
tRp15
(I3
S'|'
NNNI5
I1
I0
tbS'brute'
tRp16
st.(cnumpy.core.multiarray
scalar
p1
(cnumpy
dtype
p2
(S'f8'
I0
I1
tRp3
(I3
S'<'
NNNI-1
I-1
I0
tbS'\x07\x08\x9b\xf8nR\xe5?'
tRp4
g1
(g3
S'wwwww:y?'
tRp5
(dp6
S'n_neighbors'
p7
I3
sS'metric'
p8
g1
(g2
(S'S9'
I0
I1
tRp9
(I3
S'|'
NNNI9
I1
I0
tbS'euclidean'
tRp10
sS'weights'
p11
g1
(g2
(S'S8'
I0
I1
tRp12
(I3
S'|'
NNNI8
I1
I0
tbS'distance'
tRp13
sS'algorithm'
p14
g1
(g2
(S'S5'
I0
I1
tRp15
(I3
S'|'
NNNI5
I1
I0
tbS'brute'
tRp16
st.(cnumpy.core.multiarray
scalar
p1
(cnumpy
dtype
p2
(S'f8'
I0
I1
tRp3
(I3
S'<'
NNNI-1
I-1
I0
tbS'\xa9,\x86\xce,\xbe\xcf?'
tRp4
g1
(g3
S'\x11\x11\x11\x11qvs?'
tRp5
(dp6
S'n_neighbors'
p7
I14
sS'metric'
p8
g1
(g2
(S'S9'
I0
I1
tRp9
(I3
S'|'
NNNI9
I1
I0
tbS'manhattan'
tRp10
sS'weights'
p11
g1
(g2
(S'S7'
I0
I1
tRp12
(I3
S'|'
NNNI7
I1
I0
tbS'uniform'
tRp13
sS'leaf_size'
p14
I25
sS'algorithm'
p15
g1
(g2
(S'S9'
I0
I1
tRp16
(I3
S'|'
NNNI9
I1
I0
tbS'ball_tree'
tRp17
st.(cnumpy.core.multiarray
scalar
p1
(cnumpy
dtype
p2
(S'f8'
I0
I1
tRp3
(I3
S'<'
NNNI-1
I-1
I0
tbS'\xc0\xe9\xf0uu\x97\xe0?'
tRp4
g1
(g3
S'\xef\xee\xee\xeenYn?'
tRp5
(dp6
S'n_neighbors'
p7
I2
sS'metric'
p8
g1
(g2
(S'S9'
I0
I1
tRp9
(I3
S'|'
NNNI9
I1
I0
tbS'chebyshev'
tRp10
sS'weights'
p11
g1
(g2
(S'S8'
I0
I1
tRp12
(I3
S'|'
NNNI8
I1
I0
tbS'distance'
tRp13
sS'algorithm'
p14
g1
(g2
(S'S5'
I0
I1
tRp15
(I3
S'|'
NNNI5
I1
I0
tbS'brute'
tRp16
st.(cnumpy.core.multiarray
scalar
p1
(cnumpy
dtype
p2
(S'f8'
I0
I1
tRp3
(I3
S'<'
NNNI-1
I-1
I0
tbS'\xb6\x1ax\xdd\x18\xb8\xe3?'
tRp4
g1
(g3
S'3333\xf3Pi?'
tRp5
(dp6
S'n_neighbors'
p7
I2
sS'metric'
p8
g1
(g2
(S'S9'
I0
I1
tRp9
(I3
S'|'
NNNI9
I1
I0
tbS'manhattan'
tRp10
sS'weights'
p11
g1
(g2
(S'S8'
I0
I1
tRp12
(I3
S'|'
NNNI8
I1
I0
tbS'distance'
tRp13
sS'leaf_size'
p14
I42
sS'algorithm'
p15
g1
(g2
(S'S7'
I0
I1
tRp16
(I3
S'|'
NNNI7
I1
I0
tbS'kd_tree'
tRp17
st.(cnumpy.core.multiarray
scalar
p1
(cnumpy
dtype
p2
(S'f8'
I0
I1
tRp3
(I3
S'<'
NNNI-1
I-1
I0
tbS'\xf9\rH\xb7\x85\x7f\xe3?'
tRp4
g1
(g3
S'\xde\xdd\xdd\xdd]\x89h?'
tRp5
(dp6
S'n_neighbors'
p7
I2
sS'metric'
p8
g1
(g2
(S'S9'
I0
I1
tRp9
(I3
S'|'
NNNI9
I1
I0
tbS'manhattan'
tRp10
sS'weights'
p11
g1
(g2
(S'S8'
I0
I1
tRp12
(I3
S'|'
NNNI8
I1
I0
tbS'distance'
tRp13
sS'leaf_size'
p14
I26
sS'algorithm'
p15
g1
(g2
(S'S9'
I0
I1
tRp16
(I3
S'|'
NNNI9
I1
I0
tbS'ball_tree'
tRp17
st.(cnumpy.core.multiarray
scalar
p1
(cnumpy
dtype
p2
(S'f8'
I0
I1
tRp3
(I3
S'<'
NNNI-1
I-1
I0
tbS'P\x03\xce\xc9>\x8c\xe3?'
tRp4
g1
(g3
S'\x89\x88\x88\x88H\xd4p?'
tRp5
(dp6
S'n_neighbors'
p7
I8
sS'metric'
p8
g1
(g2
(S'S9'
I0
I1
tRp9
(I3
S'|'
NNNI9
I1
I0
tbS'chebyshev'
tRp10
sS'weights'
p11
g1
(g2
(S'S8'
I0
I1
tRp12
(I3
S'|'
NNNI8
I1
I0
tbS'distance'
tRp13
sS'leaf_size'
p14
I15
sS'algorithm'
p15
g1
(g2
(S'S9'
I0
I1
tRp16
(I3
S'|'
NNNI9
I1
I0
tbS'ball_tree'
tRp17
st.(cnumpy.core.multiarray
scalar
p1
(cnumpy
dtype
p2
(S'f8'
I0
I1
tRp3
(I3
S'<'
NNNI-1
I-1
I0
tbS'V\xfa\xe7\xfc\x01\x8b\xe3?'
tRp4
g1
(g3
S'\xcd\xcc\xcc\xcc\x8c\xfef?'
tRp5
(dp6
S'n_neighbors'
p7
I1
sS'metric'
p8
g1
(g2
(S'S9'
I0
I1
tRp9
(I3
S'|'
NNNI9
I1
I0
tbS'manhattan'
tRp10
sS'weights'
p11
g1
(g2
(S'S7'
I0
I1
tRp12
(I3
S'|'
NNNI7
I1
I0
tbS'uniform'
tRp13
sS'leaf_size'
p14
I20
sS'algorithm'
p15
g1
(g2
(S'S9'
I0
I1
tRp16
(I3
S'|'
NNNI9
I1
I0
tbS'ball_tree'
tRp17
st.(cnumpy.core.multiarray
scalar
p1
(cnumpy
dtype
p2
(S'f8'
I0
I1
tRp3
(I3
S'<'
NNNI-1
I-1
I0
tbS'a\x00\xfd\xaa\xc7\xb3\xe4?'
tRp4
g1
(g3
S'\xbc\xbb\xbb\xbb\xebi\x8e?'
tRp5
(dp6
S'n_neighbors'
p7
I4
sS'metric'
p8
g1
(g2
(S'S9'
I0
I1
tRp9
(I3
S'|'
NNNI9
I1
I0
tbS'manhattan'
tRp10
sS'weights'
p11
g1
(g2
(S'S7'
I0
I1
tRp12
(I3
S'|'
NNNI7
I1
I0
tbS'uniform'
tRp13
sS'algorithm'
p14
g1
(g2
(S'S5'
I0
I1
tRp15
(I3
S'|'
NNNI5
I1
I0
tbS'brute'
tRp16
st.(cnumpy.core.multiarray
scalar
p1
(cnumpy
dtype
p2
(S'f8'
I0
I1
tRp3
(I3
S'<'
NNNI-1
I-1
I0
tbS'\n\xef]\xc2\x17\x10\xe5?'
tRp4
g1
(g3
S'""""b\x9cl?'
tRp5
(dp6
S'n_neighbors'
p7
I3
sS'metric'
p8
g1
(g2
(S'S9'
I0
I1
tRp9
(I3
S'|'
NNNI9
I1
I0
tbS'manhattan'
tRp10
sS'weights'
p11
g1
(g2
(S'S8'
I0
I1
tRp12
(I3
S'|'
NNNI8
I1
I0
tbS'distance'
tRp13
sS'leaf_size'
p14
I38
sS'algorithm'
p15
g1
(g2
(S'S7'
I0
I1
tRp16
(I3
S'|'
NNNI7
I1
I0
tbS'kd_tree'
tRp17
st.(cnumpy.core.multiarray
scalar
p1
(cnumpy
dtype
p2
(S'f8'
I0
I1
tRp3
(I3
S'<'
NNNI-1
I-1
I0
tbS'd\xf8\x8bt\xa8]\xd9?'
tRp4
g1
(g3
S'\x11\x11\x11\x11\xf1]q?'
tRp5
(dp6
S'n_neighbors'
p7
I11
sS'metric'
p8
g1
(g2
(S'S9'
I0
I1
tRp9
(I3
S'|'
NNNI9
I1
I0
tbS'manhattan'
tRp10
sS'weights'
p11
g1
(g2
(S'S7'
I0
I1
tRp12
(I3
S'|'
NNNI7
I1
I0
tbS'uniform'
tRp13
sS'leaf_size'
p14
I32
sS'algorithm'
p15
g1
(g2
(S'S9'
I0
I1
tRp16
(I3
S'|'
NNNI9
I1
I0
tbS'ball_tree'
tRp17
st.(cnumpy.core.multiarray
scalar
p1
(cnumpy
dtype
p2
(S'f8'
I0
I1
tRp3
(I3
S'<'
NNNI-1
I-1
I0
tbS'P\xe0\xfa\x06\xa2\xcb\xe3?'
tRp4
g1
(g3
S'\xef\xee\xee\xeen\x05f?'
tRp5
(dp6
S'n_neighbors'
p7
I2
sS'metric'
p8
g1
(g2
(S'S9'
I0
I1
tRp9
(I3
S'|'
NNNI9
I1
I0
tbS'euclidean'
tRp10
sS'weights'
p11
g1
(g2
(S'S8'
I0
I1
tRp12
(I3
S'|'
NNNI8
I1
I0
tbS'distance'
tRp13
sS'leaf_size'
p14
I35
sS'algorithm'
p15
g1
(g2
(S'S9'
I0
I1
tRp16
(I3
S'|'
NNNI9
I1
I0
tbS'ball_tree'
tRp17
st.(cnumpy.core.multiarray
scalar
p1
(cnumpy
dtype
p2
(S'f8'
I0
I1
tRp3
(I3
S'<'
NNNI-1
I-1
I0
tbS'\xdb\x18\xa8\xe1\x13\x02\xe0?'
tRp4
g1
(g3
S'"""""ci?'
tRp5
(dp6
S'n_neighbors'
p7
I1
sS'metric'
p8
g1
(g2
(S'S9'
I0
I1
tRp9
(I3
S'|'
NNNI9
I1
I0
tbS'chebyshev'
tRp10
sS'weights'
p11
g1
(g2
(S'S8'
I0
I1
tRp12
(I3
S'|'
NNNI8
I1
I0
tbS'distance'
tRp13
sS'leaf_size'
p14
I42
sS'algorithm'
p15
g1
(g2
(S'S9'
I0
I1
tRp16
(I3
S'|'
NNNI9
I1
I0
tbS'ball_tree'
tRp17
st.(cnumpy.core.multiarray
scalar
p1
(cnumpy
dtype
p2
(S'f8'
I0
I1
tRp3
(I3
S'<'
NNNI-1
I-1
I0
tbS'C\xc6\x8f\xca\xb4\x12\xe3?'
tRp4
g1
(g3
S'\xef\xee\xee\xee\xee\xe7l?'
tRp5
(dp6
S'n_neighbors'
p7
I8
sS'metric'
p8
g1
(g2
(S'S9'
I0
I1
tRp9
(I3
S'|'
NNNI9
I1
I0
tbS'chebyshev'
tRp10
sS'weights'
p11
g1
(g2
(S'S7'
I0
I1
tRp12
(I3
S'|'
NNNI7
I1
I0
tbS'uniform'
tRp13
sS'leaf_size'
p14
I18
sS'algorithm'
p15
g1
(g2
(S'S7'
I0
I1
tRp16
(I3
S'|'
NNNI7
I1
I0
tbS'kd_tree'
tRp17
st.(cnumpy.core.multiarray
scalar
p1
(cnumpy
dtype
p2
(S'f8'
I0
I1
tRp3
(I3
S'<'
NNNI-1
I-1
I0
tbS'}\xcem\x84\x1c\xa2\xe4?'
tRp4
g1
(g3
S'\x11\x11\x11\x11Q\xb3o?'
tRp5
(dp6
S'n_neighbors'
p7
I4
sS'metric'
p8
g1
(g2
(S'S9'
I0
I1
tRp9
(I3
S'|'
NNNI9
I1
I0
tbS'chebyshev'
tRp10
sS'weights'
p11
g1
(g2
(S'S8'
I0
I1
tRp12
(I3
S'|'
NNNI8
I1
I0
tbS'distance'
tRp13
sS'algorithm'
p14
g1
(g2
(S'S5'
I0
I1
tRp15
(I3
S'|'
NNNI5
I1
I0
tbS'brute'
tRp16
st.(cnumpy.core.multiarray
scalar
p1
(cnumpy
dtype
p2
(S'f8'
I0
I1
tRp3
(I3
S'<'
NNNI-1
I-1
I0
tbS's\xa6\x98\x0e\xfb\x18\xe6?'
tRp4
g1
(g3
S'\x9a\x99\x99\x99\x99\xe1x?'
tRp5
(dp6
S'n_neighbors'
p7
I4
sS'metric'
p8
g1
(g2
(S'S9'
I0
I1
tRp9
(I3
S'|'
NNNI9
I1
I0
tbS'euclidean'
tRp10
sS'weights'
p11
g1
(g2
(S'S7'
I0
I1
tRp12
(I3
S'|'
NNNI7
I1
I0
tbS'uniform'
tRp13
sS'algorithm'
p14
g1
(g2
(S'S5'
I0
I1
tRp15
(I3
S'|'
NNNI5
I1
I0
tbS'brute'
tRp16
st.(cnumpy.core.multiarray
scalar
p1
(cnumpy
dtype
p2
(S'f8'
I0
I1
tRp3
(I3
S'<'
NNNI-1
I-1
I0
tbS'\xcffz\x8ez\xec\xe6?'
tRp4
g1
(g3
S"\x00\x00\x00\x00\xa0'y?"
tRp5
(dp6
S'n_neighbors'
p7
I5
sS'metric'
p8
g1
(g2
(S'S9'
I0
I1
tRp9
(I3
S'|'
NNNI9
I1
I0
tbS'euclidean'
tRp10
sS'weights'
p11
g1
(g2
(S'S7'
I0
I1
tRp12
(I3
S'|'
NNNI7
I1
I0
tbS'uniform'
tRp13
sS'algorithm'
p14
g1
(g2
(S'S5'
I0
I1
tRp15
(I3
S'|'
NNNI5
I1
I0
tbS'brute'
tRp16
st.(cnumpy.core.multiarray
scalar
p1
(cnumpy
dtype
p2
(S'f8'
I0
I1
tRp3
(I3
S'<'
NNNI-1
I-1
I0
tbS'\xb9A\xf8\xbb\xbf\xd3\xe3?'
tRp4
g1
(g3
S'\x89\x88\x88\x88\x08\xa1l?'
tRp5
(dp6
S'n_neighbors'
p7
I4
sS'metric'
p8
g1
(g2
(S'S9'
I0
I1
tRp9
(I3
S'|'
NNNI9
I1
I0
tbS'chebyshev'
tRp10
sS'weights'
p11
g1
(g2
(S'S7'
I0
I1
tRp12
(I3
S'|'
NNNI7
I1
I0
tbS'uniform'
tRp13
sS'leaf_size'
p14
I34
sS'algorithm'
p15
g1
(g2
(S'S9'
I0
I1
tRp16
(I3
S'|'
NNNI9
I1
I0
tbS'ball_tree'
tRp17
st.(cnumpy.core.multiarray
scalar
p1
(cnumpy
dtype
p2
(S'f8'
I0
I1
tRp3
(I3
S'<'
NNNI-1
I-1
I0
tbS't\xac\x08\xa7\x13z\xe3?'
tRp4
g1
(g3
S'DDDD\xa4\xf5v?'
tRp5
(dp6
S'n_neighbors'
p7
I2
sS'metric'
p8
g1
(g2
(S'S9'
I0
I1
tRp9
(I3
S'|'
NNNI9
I1
I0
tbS'euclidean'
tRp10
sS'weights'
p11
g1
(g2
(S'S7'
I0
I1
tRp12
(I3
S'|'
NNNI7
I1
I0
tbS'uniform'
tRp13
sS'algorithm'
p14
g1
(g2
(S'S5'
I0
I1
tRp15
(I3
S'|'
NNNI5
I1
I0
tbS'brute'
tRp16
st.(cnumpy.core.multiarray
scalar
p1
(cnumpy
dtype
p2
(S'f8'
I0
I1
tRp3
(I3
S'<'
NNNI-1
I-1
I0
tbS'\x1d\xe7H\xe7\xd6\x01\xde?'
tRp4
g1
(g3
S'\xef\xee\xee\xee\x8e\xd0s?'
tRp5
(dp6
S'n_neighbors'
p7
I11
sS'metric'
p8
g1
(g2
(S'S9'
I0
I1
tRp9
(I3
S'|'
NNNI9
I1
I0
tbS'manhattan'
tRp10
sS'weights'
p11
g1
(g2
(S'S8'
I0
I1
tRp12
(I3
S'|'
NNNI8
I1
I0
tbS'distance'
tRp13
sS'leaf_size'
p14
I20
sS'algorithm'
p15
g1
(g2
(S'S7'
I0
I1
tRp16
(I3
S'|'
NNNI7
I1
I0
tbS'kd_tree'
tRp17
st.(cnumpy.core.multiarray
scalar
p1
(cnumpy
dtype
p2
(S'f8'
I0
I1
tRp3
(I3
S'<'
NNNI-1
I-1
I0
tbS'\xbd\x0b\x80\xb4\x86\xd9\xe4?'
tRp4
g1
(g3
S'ffff\x16\x1b\x84?'
tRp5
(dp6
S'n_neighbors'
p7
I3
sS'metric'
p8
g1
(g2
(S'S9'
I0
I1
tRp9
(I3
S'|'
NNNI9
I1
I0
tbS'manhattan'
tRp10
sS'weights'
p11
g1
(g2
(S'S8'
I0
I1
tRp12
(I3
S'|'
NNNI8
I1
I0
tbS'distance'
tRp13
sS'algorithm'
p14
g1
(g2
(S'S5'
I0
I1
tRp15
(I3
S'|'
NNNI5
I1
I0
tbS'brute'
tRp16
st.(cnumpy.core.multiarray
scalar
p1
(cnumpy
dtype
p2
(S'f8'
I0
I1
tRp3
(I3
S'<'
NNNI-1
I-1
I0
tbS'\xf4\xbf9\xc4\xaf\x0c\xe5?'
tRp4
g1
(g3
S'3333s\xba\x91?'
tRp5
(dp6
S'p'
I17
sS'metric'
p7
g1
(g2
(S'S9'
I0
I1
tRp8
(I3
S'|'
NNNI9
I1
I0
tbS'minkowski'
tRp9
sS'weights'
p10
g1
(g2
(S'S8'
I0
I1
tRp11
(I3
S'|'
NNNI8
I1
I0
tbS'distance'
tRp12
sS'algorithm'
p13
g1
(g2
(S'S5'
I0
I1
tRp14
(I3
S'|'
NNNI5
I1
I0
tbS'brute'
tRp15
sS'n_neighbors'
p16
I8
st.(cnumpy.core.multiarray
scalar
p1
(cnumpy
dtype
p2
(S'f8'
I0
I1
tRp3
(I3
S'<'
NNNI-1
I-1
I0
tbS'\x9c\x8e\x1d\x9b\xc6\x98\xe3?'
tRp4
g1
(g3
S'\x89\x88\x88\x88\x88.d?'
tRp5
(dp6
S'n_neighbors'
p7
I1
sS'metric'
p8
g1
(g2
(S'S9'
I0
I1
tRp9
(I3
S'|'
NNNI9
I1
I0
tbS'euclidean'
tRp10
sS'weights'
p11
g1
(g2
(S'S8'
I0
I1
tRp12
(I3
S'|'
NNNI8
I1
I0
tbS'distance'
tRp13
sS'leaf_size'
p14
I20
sS'algorithm'
p15
g1
(g2
(S'S9'
I0
I1
tRp16
(I3
S'|'
NNNI9
I1
I0
tbS'ball_tree'
tRp17
st.(cnumpy.core.multiarray
scalar
p1
(cnumpy
dtype
p2
(S'f8'
I0
I1
tRp3
(I3
S'<'
NNNI-1
I-1
I0
tbS'\xfe|\xf1\xae\x98.\xc1?'
tRp4
g1
(g3
S'\xcd\xcc\xcc\xcc\xbc\xa7\x8d?'
tRp5
(dp6
S'n_neighbors'
p7
I24
sS'algorithm'
p8
g1
(g2
(S'S9'
I0
I1
tRp9
(I3
S'|'
NNNI9
I1
I0
tbS'ball_tree'
tRp10
sS'metric'
p11
g1
(g2
(S'S9'
I0
I1
tRp12
(I3
S'|'
NNNI9
I1
I0
tbS'minkowski'
tRp13
sS'p'
I16
sS'weights'
p14
g1
(g2
(S'S8'
I0
I1
tRp15
(I3
S'|'
NNNI8
I1
I0
tbS'distance'
tRp16
sS'leaf_size'
p17
I39
st.(cnumpy.core.multiarray
scalar
p1
(cnumpy
dtype
p2
(S'f8'
I0
I1
tRp3
(I3
S'<'
NNNI-1
I-1
I0
tbS'\xa55\xedSR\xc6\xe0?'
tRp4
g1
(g3
S'wwww7\xfel?'
tRp5
(dp6
S'n_neighbors'
p7
I9
sS'metric'
p8
g1
(g2
(S'S9'
I0
I1
tRp9
(I3
S'|'
NNNI9
I1
I0
tbS'euclidean'
tRp10
sS'weights'
p11
g1
(g2
(S'S7'
I0
I1
tRp12
(I3
S'|'
NNNI7
I1
I0
tbS'uniform'
tRp13
sS'leaf_size'
p14
I40
sS'algorithm'
p15
g1
(g2
(S'S9'
I0
I1
tRp16
(I3
S'|'
NNNI9
I1
I0
tbS'ball_tree'
tRp17
st.(cnumpy.core.multiarray
scalar
p1
(cnumpy
dtype
p2
(S'f8'
I0
I1
tRp3
(I3
S'<'
NNNI-1
I-1
I0
tbS'\xa0\xcd\xd0\x19\xb7n\xdd?'
tRp4
g1
(g3
S'\x89\x88\x88\x88\xe8\xfep?'
tRp5
(dp6
S'n_neighbors'
p7
I10
sS'metric'
p8
g1
(g2
(S'S9'
I0
I1
tRp9
(I3
S'|'
NNNI9
I1
I0
tbS'chebyshev'
tRp10
sS'weights'
p11
g1
(g2
(S'S8'
I0
I1
tRp12
(I3
S'|'
NNNI8
I1
I0
tbS'distance'
tRp13
sS'leaf_size'
p14
I32
sS'algorithm'
p15
g1
(g2
(S'S9'
I0
I1
tRp16
(I3
S'|'
NNNI9
I1
I0
tbS'ball_tree'
tRp17
st.(cnumpy.core.multiarray
scalar
p1
(cnumpy
dtype
p2
(S'f8'
I0
I1
tRp3
(I3
S'<'
NNNI-1
I-1
I0
tbS'\xdf\xc7\xb7\xad\x18y\xbf?'
tRp4
g1
(g3
S'DDDDLe\x9b?'
tRp5
(dp6
S'p'
I12
sS'metric'
p7
g1
(g2
(S'S9'
I0
I1
tRp8
(I3
S'|'
NNNI9
I1
I0
tbS'minkowski'
tRp9
sS'weights'
p10
g1
(g2
(S'S7'
I0
I1
tRp11
(I3
S'|'
NNNI7
I1
I0
tbS'uniform'
tRp12
sS'algorithm'
p13
g1
(g2
(S'S5'
I0
I1
tRp14
(I3
S'|'
NNNI5
I1
I0
tbS'brute'
tRp15
sS'n_neighbors'
p16
I23
st.