(lp1
(dp2
S'C'
F62.718368855927935
sS'ovr_valid'
p3
cnumpy.core.multiarray
scalar
p4
(cnumpy
dtype
p5
(S'S10'
I0
I1
tRp6
(I3
S'|'
NNNI10
I1
I0
tbS'l2_l2_True'
tRp7
sS'fit_intercept'
p8
I01
sS'multi_class'
p9
g4
(g5
(S'S3'
I0
I1
tRp10
(I3
S'|'
NNNI3
I1
I0
tbS'ovr'
tRp11
sS'tol'
p12
F0.0053961641206652774
sS'class_weight'
p13
S'auto'
p14
sa(dp15
S'C'
F75.295418521981773
sS'ovr_valid'
p16
g4
(g5
(S'S10'
I0
I1
tRp17
(I3
S'|'
NNNI10
I1
I0
tbS'l2_l2_True'
tRp18
sS'fit_intercept'
p19
I01
sS'multi_class'
p20
g4
(g5
(S'S3'
I0
I1
tRp21
(I3
S'|'
NNNI3
I1
I0
tbS'ovr'
tRp22
sS'tol'
p23
F0.0038926764490512461
sS'class_weight'
p24
S'auto'
p25
sa(dp26
S'C'
F0.023436277706637938
sS'ovr_valid'
p27
g4
(g5
(S'S10'
I0
I1
tRp28
(I3
S'|'
NNNI10
I1
I0
tbS'l2_l2_True'
tRp29
sS'fit_intercept'
p30
I00
sS'multi_class'
p31
g4
(g5
(S'S3'
I0
I1
tRp32
(I3
S'|'
NNNI3
I1
I0
tbS'ovr'
tRp33
sS'tol'
p34
F0.0072590882932670707
sS'class_weight'
p35
Nsa(dp36
S'C'
F0.0057290214381554893
sS'ovr_valid'
p37
g4
(g5
(S'S11'
I0
I1
tRp38
(I3
S'|'
NNNI11
I1
I0
tbS'l1_l2_False'
tRp39
sS'fit_intercept'
p40
I01
sS'multi_class'
p41
g4
(g5
(S'S3'
I0
I1
tRp42
(I3
S'|'
NNNI3
I1
I0
tbS'ovr'
tRp43
sS'tol'
p44
F0.0081481542421442208
sS'class_weight'
p45
S'auto'
p46
sa(dp47
S'C'
F0.035871420963699198
sS'ovr_valid'
p48
g4
(g5
(S'S11'
I0
I1
tRp49
(I3
S'|'
NNNI11
I1
I0
tbS'l1_l2_False'
tRp50
sS'fit_intercept'
p51
I01
sS'multi_class'
p52
g4
(g5
(S'S3'
I0
I1
tRp53
(I3
S'|'
NNNI3
I1
I0
tbS'ovr'
tRp54
sS'tol'
p55
F0.0048543699006855304
sS'class_weight'
p56
S'auto'
p57
sa(dp58
S'C'
F454.25548405751169
sS'ovr_valid'
p59
g4
(g5
(S'S11'
I0
I1
tRp60
(I3
S'|'
NNNI11
I1
I0
tbS'l1_l2_False'
tRp61
sS'fit_intercept'
p62
I01
sS'multi_class'
p63
g4
(g5
(S'S3'
I0
I1
tRp64
(I3
S'|'
NNNI3
I1
I0
tbS'ovr'
tRp65
sS'tol'
p66
F0.0033314904903452938
sS'class_weight'
p67
Nsa(dp68
S'C'
F233.29248153257251
sS'ovr_valid'
p69
g4
(g5
(S'S11'
I0
I1
tRp70
(I3
S'|'
NNNI11
I1
I0
tbS'l1_l2_False'
tRp71
sS'fit_intercept'
p72
I00
sS'multi_class'
p73
g4
(g5
(S'S3'
I0
I1
tRp74
(I3
S'|'
NNNI3
I1
I0
tbS'ovr'
tRp75
sS'tol'
p76
F0.0084008051454708427
sS'class_weight'
p77
S'auto'
p78
sa(dp79
S'C'
F7990.086092313396
sS'ovr_valid'
p80
g4
(g5
(S'S11'
I0
I1
tRp81
(I3
S'|'
NNNI11
I1
I0
tbS'l2_l2_False'
tRp82
sS'fit_intercept'
p83
I00
sS'multi_class'
p84
g4
(g5
(S'S3'
I0
I1
tRp85
(I3
S'|'
NNNI3
I1
I0
tbS'ovr'
tRp86
sS'tol'
p87
F0.012533917423975057
sS'class_weight'
p88
S'auto'
p89
sa(dp90
S'C'
F5.423215678491655e-05
sS'ovr_valid'
p91
g4
(g5
(S'S11'
I0
I1
tRp92
(I3
S'|'
NNNI11
I1
I0
tbS'l2_l2_False'
tRp93
sS'fit_intercept'
p94
I00
sS'multi_class'
p95
g4
(g5
(S'S3'
I0
I1
tRp96
(I3
S'|'
NNNI3
I1
I0
tbS'ovr'
tRp97
sS'tol'
p98
F0.0038246990671626014
sS'class_weight'
p99
Nsa(dp100
S'C'
F0.0013140637127479465
sS'ovr_valid'
p101
g4
(g5
(S'S10'
I0
I1
tRp102
(I3
S'|'
NNNI10
I1
I0
tbS'l2_l1_True'
tRp103
sS'fit_intercept'
p104
I01
sS'multi_class'
p105
g4
(g5
(S'S3'
I0
I1
tRp106
(I3
S'|'
NNNI3
I1
I0
tbS'ovr'
tRp107
sS'tol'
p108
F0.013014670274980355
sS'class_weight'
p109
S'auto'
p110
sa(dp111
S'C'
F0.0059066513599927116
sS'ovr_valid'
p112
g4
(g5
(S'S10'
I0
I1
tRp113
(I3
S'|'
NNNI10
I1
I0
tbS'l2_l1_True'
tRp114
sS'fit_intercept'
p115
I01
sS'multi_class'
p116
g4
(g5
(S'S3'
I0
I1
tRp117
(I3
S'|'
NNNI3
I1
I0
tbS'ovr'
tRp118
sS'tol'
p119
F0.0097180514800116746
sS'class_weight'
p120
S'auto'
p121
sa(dp122
S'C'
F7.3319607526677055
sS'ovr_valid'
p123
g4
(g5
(S'S10'
I0
I1
tRp124
(I3
S'|'
NNNI10
I1
I0
tbS'l2_l1_True'
tRp125
sS'fit_intercept'
p126
I01
sS'multi_class'
p127
g4
(g5
(S'S3'
I0
I1
tRp128
(I3
S'|'
NNNI3
I1
I0
tbS'ovr'
tRp129
sS'tol'
p130
F0.0029917696056316525
sS'class_weight'
p131
Nsa(dp132
S'C'
F0.095472057609459232
sS'ovr_valid'
p133
g4
(g5
(S'S10'
I0
I1
tRp134
(I3
S'|'
NNNI10
I1
I0
tbS'l2_l1_True'
tRp135
sS'fit_intercept'
p136
I01
sS'multi_class'
p137
g4
(g5
(S'S3'
I0
I1
tRp138
(I3
S'|'
NNNI3
I1
I0
tbS'ovr'
tRp139
sS'tol'
p140
F0.0045668512175926837
sS'class_weight'
p141
Nsa(dp142
S'C'
F0.35986638049044484
sS'ovr_valid'
p143
g4
(g5
(S'S10'
I0
I1
tRp144
(I3
S'|'
NNNI10
I1
I0
tbS'l2_l1_True'
tRp145
sS'fit_intercept'
p146
I00
sS'multi_class'
p147
g4
(g5
(S'S3'
I0
I1
tRp148
(I3
S'|'
NNNI3
I1
I0
tbS'ovr'
tRp149
sS'tol'
p150
F0.010197592274541615
sS'class_weight'
p151
S'auto'
p152
sa(dp153
S'multi_class'
p154
g4
(g5
(S'S14'
I0
I1
tRp155
(I3
S'|'
NNNI14
I1
I0
tbS'crammer_singer'
tRp156
sS'C'
F0.11230177809777783
sS'class_weight'
p157
S'auto'
p158
sS'tol'
p159
F0.004708968652236487
sS'fit_intercept'
p160
I01
sa(dp161
S'multi_class'
p162
g4
(g5
(S'S14'
I0
I1
tRp163
(I3
S'|'
NNNI14
I1
I0
tbS'crammer_singer'
tRp164
sS'C'
F0.007692916741991066
sS'class_weight'
p165
S'auto'
p166
sS'tol'
p167
F0.0069637487985244823
sS'fit_intercept'
p168
I01
sa(dp169
S'multi_class'
p170
g4
(g5
(S'S14'
I0
I1
tRp171
(I3
S'|'
NNNI14
I1
I0
tbS'crammer_singer'
tRp172
sS'C'
F0.00027520724019964145
sS'class_weight'
p173
S'auto'
p174
sS'tol'
p175
F0.0096592918967260515
sS'fit_intercept'
p176
I01
sa(dp177
S'multi_class'
p178
g4
(g5
(S'S14'
I0
I1
tRp179
(I3
S'|'
NNNI14
I1
I0
tbS'crammer_singer'
tRp180
sS'C'
F1128.0652158161963
sS'class_weight'
p181
NsS'tol'
p182
F0.0032423308945643044
sS'fit_intercept'
p183
I01
sa(dp184
S'multi_class'
p185
g4
(g5
(S'S14'
I0
I1
tRp186
(I3
S'|'
NNNI14
I1
I0
tbS'crammer_singer'
tRp187
sS'C'
F71.634353340018123
sS'class_weight'
p188
NsS'tol'
p189
F0.010315587350848244
sS'fit_intercept'
p190
I01
sa(dp191
S'multi_class'
p192
g4
(g5
(S'S14'
I0
I1
tRp193
(I3
S'|'
NNNI14
I1
I0
tbS'crammer_singer'
tRp194
sS'C'
F0.42913840726204705
sS'class_weight'
p195
NsS'tol'
p196
F0.0055395972293095603
sS'fit_intercept'
p197
I01
sa(dp198
S'multi_class'
p199
g4
(g5
(S'S14'
I0
I1
tRp200
(I3
S'|'
NNNI14
I1
I0
tbS'crammer_singer'
tRp201
sS'C'
F2565.4619052924822
sS'class_weight'
p202
NsS'tol'
p203
F0.0036940303692840687
sS'fit_intercept'
p204
I01
sa(dp205
S'multi_class'
p206
g4
(g5
(S'S14'
I0
I1
tRp207
(I3
S'|'
NNNI14
I1
I0
tbS'crammer_singer'
tRp208
sS'C'
F21723.538307117047
sS'class_weight'
p209
S'auto'
p210
sS'tol'
p211
F0.0048450753868520147
sS'fit_intercept'
p212
I00
sa(dp213
S'multi_class'
p214
g4
(g5
(S'S14'
I0
I1
tRp215
(I3
S'|'
NNNI14
I1
I0
tbS'crammer_singer'
tRp216
sS'C'
F0.0048345141473037385
sS'class_weight'
p217
S'auto'
p218
sS'tol'
p219
F0.0059918227835146689
sS'fit_intercept'
p220
I00
sa(dp221
S'multi_class'
p222
g4
(g5
(S'S14'
I0
I1
tRp223
(I3
S'|'
NNNI14
I1
I0
tbS'crammer_singer'
tRp224
sS'C'
F0.0094207939974183513
sS'class_weight'
p225
NsS'tol'
p226
F0.0058027259430887329
sS'fit_intercept'
p227
I00
sa(dp228
S'multi_class'
p229
g4
(g5
(S'S14'
I0
I1
tRp230
(I3
S'|'
NNNI14
I1
I0
tbS'crammer_singer'
tRp231
sS'C'
F0.00053332227457145056
sS'class_weight'
p232
NsS'tol'
p233
F0.005616497045015106
sS'fit_intercept'
p234
I00
sa(dp235
S'multi_class'
p236
g4
(g5
(S'S14'
I0
I1
tRp237
(I3
S'|'
NNNI14
I1
I0
tbS'crammer_singer'
tRp238
sS'C'
F115.42583637501511
sS'class_weight'
p239
NsS'tol'
p240
F0.0041937021469134776
sS'fit_intercept'
p241
I00
sa(dp242
S'multi_class'
p243
g4
(g5
(S'S14'
I0
I1
tRp244
(I3
S'|'
NNNI14
I1
I0
tbS'crammer_singer'
tRp245
sS'C'
F189.87235696614994
sS'class_weight'
p246
NsS'tol'
p247
F0.0059112780358221637
sS'fit_intercept'
p248
I00
sa(dp249
S'multi_class'
p250
g4
(g5
(S'S14'
I0
I1
tRp251
(I3
S'|'
NNNI14
I1
I0
tbS'crammer_singer'
tRp252
sS'C'
F0.01495076306331029
sS'class_weight'
p253
NsS'tol'
p254
F0.0062074268345111037
sS'fit_intercept'
p255
I00
sa(dp256
S'multi_class'
p257
g4
(g5
(S'S14'
I0
I1
tRp258
(I3
S'|'
NNNI14
I1
I0
tbS'crammer_singer'
tRp259
sS'C'
F0.0020464707356420957
sS'class_weight'
p260
NsS'tol'
p261
F0.0066926898732678321
sS'fit_intercept'
p262
I00
sa.