(cnumpy.core.multiarray
scalar
p1
(cnumpy
dtype
p2
(S'f8'
I0
I1
tRp3
(I3
S'<'
NNNI-1
I-1
I0
tbS'\xc7\xd3\xdc!\x1c\xc8\xbd?'
tRp4
g1
(g3
S'\x9a\x99\x99\x99\x19\x81S?'
tRp5
(dp6
S'C'
F0.0013140637127479465
sS'ovr_valid'
p7
g1
(g2
(S'S10'
I0
I1
tRp8
(I3
S'|'
NNNI10
I1
I0
tbS'l2_l1_True'
tRp9
sS'fit_intercept'
p10
I01
sS'multi_class'
p11
g1
(g2
(S'S3'
I0
I1
tRp12
(I3
S'|'
NNNI3
I1
I0
tbS'ovr'
tRp13
sS'tol'
p14
F0.013014670274980355
sS'class_weight'
p15
S'auto'
p16
st.(cnumpy.core.multiarray
scalar
p1
(cnumpy
dtype
p2
(S'f8'
I0
I1
tRp3
(I3
S'<'
NNNI-1
I-1
I0
tbS'{X[I\x00\xf7\xe8?'
tRp4
g1
(g3
S'\xab\xaa\xaa\xaa\xeau~?'
tRp5
(dp6
S'multi_class'
p7
g1
(g2
(S'S14'
I0
I1
tRp8
(I3
S'|'
NNNI14
I1
I0
tbS'crammer_singer'
tRp9
sS'C'
F0.11230177809777783
sS'fit_intercept'
p10
I01
sS'tol'
p11
F0.004708968652236487
sS'class_weight'
p12
S'auto'
p13
st.(cnumpy.core.multiarray
scalar
p1
(cnumpy
dtype
p2
(S'f8'
I0
I1
tRp3
(I3
S'<'
NNNI-1
I-1
I0
tbS's\xc4\x9f1\xc0*\xa6?'
tRp4
g1
(g3
S'\xbc\xbb\xbb\xbb\xbbmK?'
tRp5
(dp6
S'C'
F5.423215678491655e-05
sS'ovr_valid'
p7
g1
(g2
(S'S11'
I0
I1
tRp8
(I3
S'|'
NNNI11
I1
I0
tbS'l2_l2_False'
tRp9
sS'fit_intercept'
p10
I00
sS'multi_class'
p11
g1
(g2
(S'S3'
I0
I1
tRp12
(I3
S'|'
NNNI3
I1
I0
tbS'ovr'
tRp13
sS'tol'
p14
F0.0038246990671626014
sS'class_weight'
p15
Nst.(cnumpy.core.multiarray
scalar
p1
(cnumpy
dtype
p2
(S'f8'
I0
I1
tRp3
(I3
S'<'
NNNI-1
I-1
I0
tbS'\xbca\x9a|x\xbc\xd6?'
tRp4
g1
(g3
S'\x89\x88\x88\x88\xf8\xdd\x9c?'
tRp5
(dp6
S'C'
F62.718368855927935
sS'ovr_valid'
p7
g1
(g2
(S'S10'
I0
I1
tRp8
(I3
S'|'
NNNI10
I1
I0
tbS'l2_l2_True'
tRp9
sS'fit_intercept'
p10
I01
sS'multi_class'
p11
g1
(g2
(S'S3'
I0
I1
tRp12
(I3
S'|'
NNNI3
I1
I0
tbS'ovr'
tRp13
sS'tol'
p14
F0.0053961641206652774
sS'class_weight'
p15
S'auto'
p16
st.(cnumpy.core.multiarray
scalar
p1
(cnumpy
dtype
p2
(S'f8'
I0
I1
tRp3
(I3
S'<'
NNNI-1
I-1
I0
tbS'\xa3\n#\xa4#/\xd8?'
tRp4
g1
(g3
S'wwwww@T?'
tRp5
(dp6
S'C'
F0.0057290214381554893
sS'ovr_valid'
p7
g1
(g2
(S'S11'
I0
I1
tRp8
(I3
S'|'
NNNI11
I1
I0
tbS'l1_l2_False'
tRp9
sS'fit_intercept'
p10
I01
sS'multi_class'
p11
g1
(g2
(S'S3'
I0
I1
tRp12
(I3
S'|'
NNNI3
I1
I0
tbS'ovr'
tRp13
sS'tol'
p14
F0.0081481542421442208
sS'class_weight'
p15
S'auto'
p16
st.(cnumpy.core.multiarray
scalar
p1
(cnumpy
dtype
p2
(S'f8'
I0
I1
tRp3
(I3
S'<'
NNNI-1
I-1
I0
tbS'\xe39\x9d]\xbb\xb4\xc7?'
tRp4
g1
(g3
S'""""bOc?'
tRp5
(dp6
S'multi_class'
p7
g1
(g2
(S'S14'
I0
I1
tRp8
(I3
S'|'
NNNI14
I1
I0
tbS'crammer_singer'
tRp9
sS'C'
F0.007692916741991066
sS'fit_intercept'
p10
I01
sS'tol'
p11
F0.0069637487985244823
sS'class_weight'
p12
S'auto'
p13
st.(cnumpy.core.multiarray
scalar
p1
(cnumpy
dtype
p2
(S'f8'
I0
I1
tRp3
(I3
S'<'
NNNI-1
I-1
I0
tbS'\xddTgZ\x1e\xd0\xda?'
tRp4
g1
(g3
S'\x9a\x99\x99\x99\x19i\x89?'
tRp5
(dp6
S'C'
F7.3319607526677055
sS'ovr_valid'
p7
g1
(g2
(S'S10'
I0
I1
tRp8
(I3
S'|'
NNNI10
I1
I0
tbS'l2_l1_True'
tRp9
sS'fit_intercept'
p10
I01
sS'multi_class'
p11
g1
(g2
(S'S3'
I0
I1
tRp12
(I3
S'|'
NNNI3
I1
I0
tbS'ovr'
tRp13
sS'tol'
p14
F0.0029917696056316525
sS'class_weight'
p15
Nst.(cnumpy.core.multiarray
scalar
p1
(cnumpy
dtype
p2
(S'f8'
I0
I1
tRp3
(I3
S'<'
NNNI-1
I-1
I0
tbS'\xfb\x98$.k\xe8\xe0?'
tRp4
g1
(g3
S'3333\xf3\xf4j?'
tRp5
(dp6
S'C'
F233.29248153257251
sS'ovr_valid'
p7
g1
(g2
(S'S11'
I0
I1
tRp8
(I3
S'|'
NNNI11
I1
I0
tbS'l1_l2_False'
tRp9
sS'fit_intercept'
p10
I00
sS'multi_class'
p11
g1
(g2
(S'S3'
I0
I1
tRp12
(I3
S'|'
NNNI3
I1
I0
tbS'ovr'
tRp13
sS'tol'
p14
F0.0084008051454708427
sS'class_weight'
p15
S'auto'
p16
st.(cnumpy.core.multiarray
scalar
p1
(cnumpy
dtype
p2
(S'f8'
I0
I1
tRp3
(I3
S'<'
NNNI-1
I-1
I0
tbS'\xe4\x95?\xa6]\x80\xc1?'
tRp4
g1
(g3
S'33333\x80\x82?'
tRp5
(dp6
S'C'
F454.25548405751169
sS'ovr_valid'
p7
g1
(g2
(S'S11'
I0
I1
tRp8
(I3
S'|'
NNNI11
I1
I0
tbS'l1_l2_False'
tRp9
sS'fit_intercept'
p10
I01
sS'multi_class'
p11
g1
(g2
(S'S3'
I0
I1
tRp12
(I3
S'|'
NNNI3
I1
I0
tbS'ovr'
tRp13
sS'tol'
p14
F0.0033314904903452938
sS'class_weight'
p15
Nst.(cnumpy.core.multiarray
scalar
p1
(cnumpy
dtype
p2
(S'f8'
I0
I1
tRp3
(I3
S'<'
NNNI-1
I-1
I0
tbS'-Ke\xbbp!\xc0?'
tRp4
g1
(g3
S'\x89\x88\x88\x88\x08\xffd?'
tRp5
(dp6
S'multi_class'
p7
g1
(g2
(S'S14'
I0
I1
tRp8
(I3
S'|'
NNNI14
I1
I0
tbS'crammer_singer'
tRp9
sS'C'
F0.0094207939974183513
sS'fit_intercept'
p10
I00
sS'tol'
p11
F0.0058027259430887329
sS'class_weight'
p12
Nst.(cnumpy.core.multiarray
scalar
p1
(cnumpy
dtype
p2
(S'f8'
I0
I1
tRp3
(I3
S'<'
NNNI-1
I-1
I0
tbS'\r\x17\xd8\x89\xf5\x11\xc2?'
tRp4
g1
(g3
S'\xbc\xbb\xbb\xbb\xbbaT?'
tRp5
(dp6
S'multi_class'
p7
g1
(g2
(S'S14'
I0
I1
tRp8
(I3
S'|'
NNNI14
I1
I0
tbS'crammer_singer'
tRp9
sS'C'
F0.00027520724019964145
sS'fit_intercept'
p10
I01
sS'tol'
p11
F0.0096592918967260515
sS'class_weight'
p12
S'auto'
p13
st.(cnumpy.core.multiarray
scalar
p1
(cnumpy
dtype
p2
(S'f8'
I0
I1
tRp3
(I3
S'<'
NNNI-1
I-1
I0
tbS'\xdemQ\xee\x96!\xd7?'
tRp4
g1
(g3
S'wwww\xf7%\x9d?'
tRp5
(dp6
S'C'
F75.295418521981773
sS'ovr_valid'
p7
g1
(g2
(S'S10'
I0
I1
tRp8
(I3
S'|'
NNNI10
I1
I0
tbS'l2_l2_True'
tRp9
sS'fit_intercept'
p10
I01
sS'multi_class'
p11
g1
(g2
(S'S3'
I0
I1
tRp12
(I3
S'|'
NNNI3
I1
I0
tbS'ovr'
tRp13
sS'tol'
p14
F0.0038926764490512461
sS'class_weight'
p15
S'auto'
p16
st.(cnumpy.core.multiarray
scalar
p1
(cnumpy
dtype
p2
(S'f8'
I0
I1
tRp3
(I3
S'<'
NNNI-1
I-1
I0
tbS'\x07 \xb5}\xb1\x81\xe5?'
tRp4
g1
(g3
S'UUU\x85\xccp\x15@'
tRp5
(dp6
S'multi_class'
p7
g1
(g2
(S'S14'
I0
I1
tRp8
(I3
S'|'
NNNI14
I1
I0
tbS'crammer_singer'
tRp9
sS'C'
F1128.0652158161963
sS'fit_intercept'
p10
I01
sS'tol'
p11
F0.0032423308945643044
sS'class_weight'
p12
Nst.(cnumpy.core.multiarray
scalar
p1
(cnumpy
dtype
p2
(S'f8'
I0
I1
tRp3
(I3
S'<'
NNNI-1
I-1
I0
tbS'\x86\xea\x95\xec\xd7;\xb6?'
tRp4
g1
(g3
S'"""""Y_?'
tRp5
(dp6
S'multi_class'
p7
g1
(g2
(S'S14'
I0
I1
tRp8
(I3
S'|'
NNNI14
I1
I0
tbS'crammer_singer'
tRp9
sS'C'
F0.00053332227457145056
sS'fit_intercept'
p10
I00
sS'tol'
p11
F0.005616497045015106
sS'class_weight'
p12
Nst.(cnumpy.core.multiarray
scalar
p1
(cnumpy
dtype
p2
(S'f8'
I0
I1
tRp3
(I3
S'<'
NNNI-1
I-1
I0
tbS'\x15:Ci\xeb\xd7\xe8?'
tRp4
g1
(g3
S'\x00\x00\x00\xa0\xfd\xe1\xf3?'
tRp5
(dp6
S'multi_class'
p7
g1
(g2
(S'S14'
I0
I1
tRp8
(I3
S'|'
NNNI14
I1
I0
tbS'crammer_singer'
tRp9
sS'C'
F115.42583637501511
sS'fit_intercept'
p10
I00
sS'tol'
p11
F0.0041937021469134776
sS'class_weight'
p12
Nst.(cnumpy.core.multiarray
scalar
p1
(cnumpy
dtype
p2
(S'f8'
I0
I1
tRp3
(I3
S'<'
NNNI-1
I-1
I0
tbS'\xf1n\xd6\x146\x03\xc2?'
tRp4
g1
(g3
S'"""""rg?'
tRp5
(dp6
S'C'
F0.023436277706637938
sS'ovr_valid'
p7
g1
(g2
(S'S10'
I0
I1
tRp8
(I3
S'|'
NNNI10
I1
I0
tbS'l2_l2_True'
tRp9
sS'fit_intercept'
p10
I00
sS'multi_class'
p11
g1
(g2
(S'S3'
I0
I1
tRp12
(I3
S'|'
NNNI3
I1
I0
tbS'ovr'
tRp13
sS'tol'
p14
F0.0072590882932670707
sS'class_weight'
p15
Nst.(cnumpy.core.multiarray
scalar
p1
(cnumpy
dtype
p2
(S'f8'
I0
I1
tRp3
(I3
S'<'
NNNI-1
I-1
I0
tbS'^\x17\xc3O\xfe\n\xd9?'
tRp4
g1
(g3
S'fffn\xc3}\x17@'
tRp5
(dp6
S'multi_class'
p7
g1
(g2
(S'S14'
I0
I1
tRp8
(I3
S'|'
NNNI14
I1
I0
tbS'crammer_singer'
tRp9
sS'C'
F21723.538307117047
sS'fit_intercept'
p10
I00
sS'tol'
p11
F0.0048450753868520147
sS'class_weight'
p12
S'auto'
p13
st.(cnumpy.core.multiarray
scalar
p1
(cnumpy
dtype
p2
(S'f8'
I0
I1
tRp3
(I3
S'<'
NNNI-1
I-1
I0
tbS'\xecB(\xcf\xf4\x94\xc1?'
tRp4
g1
(g3
S'\xde\xdd\xdd\xdd\xddps?'
tRp5
(dp6
S'C'
F0.095472057609459232
sS'ovr_valid'
p7
g1
(g2
(S'S10'
I0
I1
tRp8
(I3
S'|'
NNNI10
I1
I0
tbS'l2_l1_True'
tRp9
sS'fit_intercept'
p10
I01
sS'multi_class'
p11
g1
(g2
(S'S3'
I0
I1
tRp12
(I3
S'|'
NNNI3
I1
I0
tbS'ovr'
tRp13
sS'tol'
p14
F0.0045668512175926837
sS'class_weight'
p15
Nst.(cnumpy.core.multiarray
scalar
p1
(cnumpy
dtype
p2
(S'f8'
I0
I1
tRp3
(I3
S'<'
NNNI-1
I-1
I0
tbS'\x90U\xea\xaf\x1a\xae\xe9?'
tRp4
g1
(g3
S'\x11\x11\x11\xd12x\xea?'
tRp5
(dp6
S'multi_class'
p7
g1
(g2
(S'S14'
I0
I1
tRp8
(I3
S'|'
NNNI14
I1
I0
tbS'crammer_singer'
tRp9
sS'C'
F71.634353340018123
sS'fit_intercept'
p10
I01
sS'tol'
p11
F0.010315587350848244
sS'class_weight'
p12
Nst.(cnumpy.core.multiarray
scalar
p1
(cnumpy
dtype
p2
(S'f8'
I0
I1
tRp3
(I3
S'<'
NNNI-1
I-1
I0
tbS'z{\x0f/7\xd7\xc1?'
tRp4
g1
(g3
S'""""\xa2iW?'
tRp5
(dp6
S'C'
F0.0059066513599927116
sS'ovr_valid'
p7
g1
(g2
(S'S10'
I0
I1
tRp8
(I3
S'|'
NNNI10
I1
I0
tbS'l2_l1_True'
tRp9
sS'fit_intercept'
p10
I01
sS'multi_class'
p11
g1
(g2
(S'S3'
I0
I1
tRp12
(I3
S'|'
NNNI3
I1
I0
tbS'ovr'
tRp13
sS'tol'
p14
F0.0097180514800116746
sS'class_weight'
p15
S'auto'
p16
st.(cnumpy.core.multiarray
scalar
p1
(cnumpy
dtype
p2
(S'f8'
I0
I1
tRp3
(I3
S'<'
NNNI-1
I-1
I0
tbS'\xe4L\xc9\x94\x10M\xc2?'
tRp4
g1
(g3
S'3333#\xf5\x9e?'
tRp5
(dp6
S'multi_class'
p7
g1
(g2
(S'S14'
I0
I1
tRp8
(I3
S'|'
NNNI14
I1
I0
tbS'crammer_singer'
tRp9
sS'C'
F0.42913840726204705
sS'fit_intercept'
p10
I01
sS'tol'
p11
F0.0055395972293095603
sS'class_weight'
p12
Nst.(cnumpy.core.multiarray
scalar
p1
(cnumpy
dtype
p2
(S'f8'
I0
I1
tRp3
(I3
S'<'
NNNI-1
I-1
I0
tbS'\x97\x0016\x98\x13\xe3?'
tRp4
g1
(g3
S'"""\xa2\x80\xbf\x1b@'
tRp5
(dp6
S'multi_class'
p7
g1
(g2
(S'S14'
I0
I1
tRp8
(I3
S'|'
NNNI14
I1
I0
tbS'crammer_singer'
tRp9
sS'C'
F2565.4619052924822
sS'fit_intercept'
p10
I01
sS'tol'
p11
F0.0036940303692840687
sS'class_weight'
p12
Nst.(cnumpy.core.multiarray
scalar
p1
(cnumpy
dtype
p2
(S'f8'
I0
I1
tRp3
(I3
S'<'
NNNI-1
I-1
I0
tbS'\xd4\x9dQ0\x14\xbb\xd3?'
tRp4
g1
(g3
S'wwww\xd7k\x83?'
tRp5
(dp6
S'C'
F0.35986638049044484
sS'ovr_valid'
p7
g1
(g2
(S'S10'
I0
I1
tRp8
(I3
S'|'
NNNI10
I1
I0
tbS'l2_l1_True'
tRp9
sS'fit_intercept'
p10
I00
sS'multi_class'
p11
g1
(g2
(S'S3'
I0
I1
tRp12
(I3
S'|'
NNNI3
I1
I0
tbS'ovr'
tRp13
sS'tol'
p14
F0.010197592274541615
sS'class_weight'
p15
S'auto'
p16
st.(cnumpy.core.multiarray
scalar
p1
(cnumpy
dtype
p2
(S'f8'
I0
I1
tRp3
(I3
S'<'
NNNI-1
I-1
I0
tbS'\xcb\x8b\xe4ev\x89\xe9?'
tRp4
g1
(g3
S'"""\x02\xae`\x04@'
tRp5
(dp6
S'multi_class'
p7
g1
(g2
(S'S14'
I0
I1
tRp8
(I3
S'|'
NNNI14
I1
I0
tbS'crammer_singer'
tRp9
sS'C'
F189.87235696614994
sS'fit_intercept'
p10
I00
sS'tol'
p11
F0.0059112780358221637
sS'class_weight'
p12
Nst.(cnumpy.core.multiarray
scalar
p1
(cnumpy
dtype
p2
(S'f8'
I0
I1
tRp3
(I3
S'<'
NNNI-1
I-1
I0
tbS'\xfb/Q\x0f\x8d\x81\xc1?'
tRp4
g1
(g3
S'\xef\xee\xee\xee\xaeTr?'
tRp5
(dp6
S'multi_class'
p7
g1
(g2
(S'S14'
I0
I1
tRp8
(I3
S'|'
NNNI14
I1
I0
tbS'crammer_singer'
tRp9
sS'C'
F0.01495076306331029
sS'fit_intercept'
p10
I00
sS'tol'
p11
F0.0062074268345111037
sS'class_weight'
p12
Nst.(cnumpy.core.multiarray
scalar
p1
(cnumpy
dtype
p2
(S'f8'
I0
I1
tRp3
(I3
S'<'
NNNI-1
I-1
I0
tbS'\x0c\xa2\xac\x85\x90p\xe5?'
tRp4
g1
(g3
S'wwwww\xc3_?'
tRp5
(dp6
S'C'
F7990.086092313396
sS'ovr_valid'
p7
g1
(g2
(S'S11'
I0
I1
tRp8
(I3
S'|'
NNNI11
I1
I0
tbS'l2_l2_False'
tRp9
sS'fit_intercept'
p10
I00
sS'multi_class'
p11
g1
(g2
(S'S3'
I0
I1
tRp12
(I3
S'|'
NNNI3
I1
I0
tbS'ovr'
tRp13
sS'tol'
p14
F0.012533917423975057
sS'class_weight'
p15
S'auto'
p16
st.(cnumpy.core.multiarray
scalar
p1
(cnumpy
dtype
p2
(S'f8'
I0
I1
tRp3
(I3
S'<'
NNNI-1
I-1
I0
tbS'{\xaf}\xd7\xd0\x8f\xc7?'
tRp4
g1
(g3
S'\xef\xee\xee\xee\xee\xaab?'
tRp5
(dp6
S'multi_class'
p7
g1
(g2
(S'S14'
I0
I1
tRp8
(I3
S'|'
NNNI14
I1
I0
tbS'crammer_singer'
tRp9
sS'C'
F0.0048345141473037385
sS'fit_intercept'
p10
I00
sS'tol'
p11
F0.0059918227835146689
sS'class_weight'
p12
S'auto'
p13
st.(cnumpy.core.multiarray
scalar
p1
(cnumpy
dtype
p2
(S'f8'
I0
I1
tRp3
(I3
S'<'
NNNI-1
I-1
I0
tbS'\xdf\xaa\xa9\xcf\x90\xc6\xbf?'
tRp4
g1
(g3
S'""""\xa2\xfa\\?'
tRp5
(dp6
S'multi_class'
p7
g1
(g2
(S'S14'
I0
I1
tRp8
(I3
S'|'
NNNI14
I1
I0
tbS'crammer_singer'
tRp9
sS'C'
F0.0020464707356420957
sS'fit_intercept'
p10
I00
sS'tol'
p11
F0.0066926898732678321
sS'class_weight'
p12
Nst.(cnumpy.core.multiarray
scalar
p1
(cnumpy
dtype
p2
(S'f8'
I0
I1
tRp3
(I3
S'<'
NNNI-1
I-1
I0
tbS'l\xe8\xe9\xea\x90p\xce?'
tRp4
g1
(g3
S'\x00\x00\x00\x00@Ag?'
tRp5
(dp6
S'C'
F0.035871420963699198
sS'ovr_valid'
p7
g1
(g2
(S'S11'
I0
I1
tRp8
(I3
S'|'
NNNI11
I1
I0
tbS'l1_l2_False'
tRp9
sS'fit_intercept'
p10
I01
sS'multi_class'
p11
g1
(g2
(S'S3'
I0
I1
tRp12
(I3
S'|'
NNNI3
I1
I0
tbS'ovr'
tRp13
sS'tol'
p14
F0.0048543699006855304
sS'class_weight'
p15
S'auto'
p16
st.