(lp1
(dp2
S'C'
F0.0013140637127479465
sS'dual'
p3
I01
sS'fit_intercept'
p4
I01
sS'penalty'
p5
cnumpy.core.multiarray
scalar
p6
(cnumpy
dtype
p7
(S'S2'
I0
I1
tRp8
(I3
S'|'
NNNI2
I1
I0
tbS'l2'
tRp9
sS'tol'
p10
F3.7308789518529553
sS'class_weight'
p11
S'auto'
p12
sa(dp13
S'C'
F12685.867639371836
sS'dual'
p14
I01
sS'fit_intercept'
p15
I01
sS'penalty'
p16
g6
(g7
(S'S2'
I0
I1
tRp17
(I3
S'|'
NNNI2
I1
I0
tbS'l2'
tRp18
sS'tol'
p19
F1.7104623679436326
sS'class_weight'
p20
S'auto'
p21
sa(dp22
S'C'
F156.18064836783714
sS'dual'
p23
I01
sS'fit_intercept'
p24
I01
sS'penalty'
p25
g6
(g7
(S'S2'
I0
I1
tRp26
(I3
S'|'
NNNI2
I1
I0
tbS'l2'
tRp27
sS'tol'
p28
F0.27421147011660185
sS'class_weight'
p29
S'auto'
p30
sa(dp31
S'C'
F7.3319607526677055
sS'dual'
p32
I01
sS'fit_intercept'
p33
I01
sS'penalty'
p34
g6
(g7
(S'S2'
I0
I1
tRp35
(I3
S'|'
NNNI2
I1
I0
tbS'l2'
tRp36
sS'tol'
p37
F0.1971519652124564
sS'class_weight'
p38
Nsa(dp39
S'C'
F0.89458365408912355
sS'dual'
p40
I01
sS'fit_intercept'
p41
I01
sS'penalty'
p42
g6
(g7
(S'S2'
I0
I1
tRp43
(I3
S'|'
NNNI2
I1
I0
tbS'l2'
tRp44
sS'tol'
p45
F1.3022552491199642
sS'class_weight'
p46
Nsa(dp47
S'C'
F0.12400507390787747
sS'dual'
p48
I01
sS'fit_intercept'
p49
I00
sS'penalty'
p50
g6
(g7
(S'S2'
I0
I1
tRp51
(I3
S'|'
NNNI2
I1
I0
tbS'l2'
tRp52
sS'tol'
p53
F0.34057620111934028
sS'class_weight'
p54
S'auto'
p55
sa(dp56
S'C'
F23.010864500892932
sS'dual'
p57
I01
sS'fit_intercept'
p58
I00
sS'penalty'
p59
g6
(g7
(S'S2'
I0
I1
tRp60
(I3
S'|'
NNNI2
I1
I0
tbS'l2'
tRp61
sS'tol'
p62
F9.7759667460803978
sS'class_weight'
p63
S'auto'
p64
sa(dp65
S'C'
F5.423215678491655e-05
sS'dual'
p66
I01
sS'fit_intercept'
p67
I00
sS'penalty'
p68
g6
(g7
(S'S2'
I0
I1
tRp69
(I3
S'|'
NNNI2
I1
I0
tbS'l2'
tRp70
sS'tol'
p71
F0.32221025518947483
sS'class_weight'
p72
Nsa(dp73
S'C'
F0.0020273613487915526
sS'dual'
p74
I01
sS'fit_intercept'
p75
I00
sS'penalty'
p76
g6
(g7
(S'S2'
I0
I1
tRp77
(I3
S'|'
NNNI2
I1
I0
tbS'l2'
tRp78
sS'tol'
p79
F1.1221054533336887
sS'class_weight'
p80
Nsa(dp81
S'C'
F645.7907152890657
sS'dual'
p82
I01
sS'fit_intercept'
p83
I00
sS'penalty'
p84
g6
(g7
(S'S2'
I0
I1
tRp85
(I3
S'|'
NNNI2
I1
I0
tbS'l2'
tRp86
sS'tol'
p87
F0.94933828590472213
sS'class_weight'
p88
Nsa(dp89
S'C'
F0.024390819667274247
sS'dual'
p90
I01
sS'fit_intercept'
p91
I00
sS'penalty'
p92
g6
(g7
(S'S2'
I0
I1
tRp93
(I3
S'|'
NNNI2
I1
I0
tbS'l2'
tRp94
sS'tol'
p95
F0.59630358189626098
sS'class_weight'
p96
Nsa(dp97
S'C'
F0.96010360541793105
sS'dual'
p98
I01
sS'fit_intercept'
p99
I00
sS'penalty'
p100
g6
(g7
(S'S2'
I0
I1
tRp101
(I3
S'|'
NNNI2
I1
I0
tbS'l2'
tRp102
sS'tol'
p103
F1.4792117160889782
sS'class_weight'
p104
Nsa(dp105
S'C'
F62.718368855927935
sS'dual'
p106
I00
sS'fit_intercept'
p107
I01
sS'penalty'
p108
g6
(g7
(S'S2'
I0
I1
tRp109
(I3
S'|'
NNNI2
I1
I0
tbS'l2'
tRp110
sS'tol'
p111
F0.64137956533176643
sS'class_weight'
p112
S'auto'
p113
sa(dp114
S'C'
F0.0057290214381554893
sS'dual'
p115
I00
sS'fit_intercept'
p116
I01
sS'penalty'
p117
g6
(g7
(S'S2'
I0
I1
tRp118
(I3
S'|'
NNNI2
I1
I0
tbS'l2'
tRp119
sS'tol'
p120
F1.4623903142827035
sS'class_weight'
p121
S'auto'
p122
sa(dp123
S'C'
F75.295418521981773
sS'dual'
p124
I00
sS'fit_intercept'
p125
I01
sS'penalty'
p126
g6
(g7
(S'S2'
I0
I1
tRp127
(I3
S'|'
NNNI2
I1
I0
tbS'l2'
tRp128
sS'tol'
p129
F0.33376549294839425
sS'class_weight'
p130
S'auto'
p131
sa(dp132
S'C'
F54.686964215872898
sS'dual'
p133
I00
sS'fit_intercept'
p134
I01
sS'penalty'
p135
g6
(g7
(S'S2'
I0
I1
tRp136
(I3
S'|'
NNNI2
I1
I0
tbS'l2'
tRp137
sS'tol'
p138
F0.36568806828252459
sS'class_weight'
p139
S'auto'
p140
sa(dp141
S'C'
F0.36574519468096794
sS'dual'
p142
I00
sS'fit_intercept'
p143
I01
sS'penalty'
p144
g6
(g7
(S'S2'
I0
I1
tRp145
(I3
S'|'
NNNI2
I1
I0
tbS'l2'
tRp146
sS'tol'
p147
F0.62790003273296824
sS'class_weight'
p148
S'auto'
p149
sa(dp150
S'C'
F454.25548405751169
sS'dual'
p151
I00
sS'fit_intercept'
p152
I01
sS'penalty'
p153
g6
(g7
(S'S2'
I0
I1
tRp154
(I3
S'|'
NNNI2
I1
I0
tbS'l2'
tRp155
sS'tol'
p156
F0.24446797484766963
sS'class_weight'
p157
Nsa(dp158
S'C'
F2434.8816616800523
sS'dual'
p159
I00
sS'fit_intercept'
p160
I01
sS'penalty'
p161
g6
(g7
(S'S2'
I0
I1
tRp162
(I3
S'|'
NNNI2
I1
I0
tbS'l2'
tRp163
sS'tol'
p164
F3.974803747445729
sS'class_weight'
p165
Nsa(dp166
S'C'
F140.26757598621381
sS'dual'
p167
I00
sS'fit_intercept'
p168
I01
sS'penalty'
p169
g6
(g7
(S'S2'
I0
I1
tRp170
(I3
S'|'
NNNI2
I1
I0
tbS'l2'
tRp171
sS'tol'
p172
F1.062202301279541
sS'class_weight'
p173
Nsa(dp174
S'C'
F9.783507244275599
sS'dual'
p175
I00
sS'fit_intercept'
p176
I01
sS'penalty'
p177
g6
(g7
(S'S2'
I0
I1
tRp178
(I3
S'|'
NNNI2
I1
I0
tbS'l2'
tRp179
sS'tol'
p180
F0.4361482675224137
sS'class_weight'
p181
Nsa(dp182
S'C'
F233.29248153257251
sS'dual'
p183
I00
sS'fit_intercept'
p184
I00
sS'penalty'
p185
g6
(g7
(S'S2'
I0
I1
tRp186
(I3
S'|'
NNNI2
I1
I0
tbS'l2'
tRp187
sS'tol'
p188
F1.5544853805145351
sS'class_weight'
p189
S'auto'
p190
sa(dp191
S'C'
F20.859904150424637
sS'dual'
p192
I00
sS'fit_intercept'
p193
I00
sS'penalty'
p194
g6
(g7
(S'S2'
I0
I1
tRp195
(I3
S'|'
NNNI2
I1
I0
tbS'l2'
tRp196
sS'tol'
p197
F0.3475529213594491
sS'class_weight'
p198
S'auto'
p199
sa(dp200
S'C'
F0.022659143244815754
sS'dual'
p201
I00
sS'fit_intercept'
p202
I00
sS'penalty'
p203
g6
(g7
(S'S2'
I0
I1
tRp204
(I3
S'|'
NNNI2
I1
I0
tbS'l2'
tRp205
sS'tol'
p206
F0.077917766726638138
sS'class_weight'
p207
S'auto'
p208
sa(dp209
S'C'
F0.023436277706637938
sS'dual'
p210
I00
sS'fit_intercept'
p211
I00
sS'penalty'
p212
g6
(g7
(S'S2'
I0
I1
tRp213
(I3
S'|'
NNNI2
I1
I0
tbS'l2'
tRp214
sS'tol'
p215
F1.1606705808824798
sS'class_weight'
p216
Nsa(dp217
S'C'
F0.018171283877394598
sS'dual'
p218
I00
sS'fit_intercept'
p219
I00
sS'penalty'
p220
g6
(g7
(S'S2'
I0
I1
tRp221
(I3
S'|'
NNNI2
I1
I0
tbS'l2'
tRp222
sS'tol'
p223
F1.5793298766192458
sS'class_weight'
p224
Nsa(dp225
S'C'
F2250.1376447718098
sS'dual'
p226
I00
sS'fit_intercept'
p227
I00
sS'penalty'
p228
g6
(g7
(S'S2'
I0
I1
tRp229
(I3
S'|'
NNNI2
I1
I0
tbS'l2'
tRp230
sS'tol'
p231
F1.9057782396769842
sS'class_weight'
p232
Nsa(dp233
S'C'
F0.00034280181436015266
sS'dual'
p234
I00
sS'fit_intercept'
p235
I00
sS'penalty'
p236
g6
(g7
(S'S2'
I0
I1
tRp237
(I3
S'|'
NNNI2
I1
I0
tbS'l2'
tRp238
sS'tol'
p239
F0.61771809909324527
sS'class_weight'
p240
Nsa(dp241
S'C'
F484.98743663540097
sS'dual'
p242
I00
sS'fit_intercept'
p243
I00
sS'penalty'
p244
g6
(g7
(S'S2'
I0
I1
tRp245
(I3
S'|'
NNNI2
I1
I0
tbS'l2'
tRp246
sS'tol'
p247
F2.0607399664219312
sS'class_weight'
p248
Nsa(dp249
S'C'
F4803.0500343074855
sS'dual'
p250
I00
sS'fit_intercept'
p251
I00
sS'penalty'
p252
g6
(g7
(S'S2'
I0
I1
tRp253
(I3
S'|'
NNNI2
I1
I0
tbS'l2'
tRp254
sS'tol'
p255
F0.74105743718046369
sS'class_weight'
p256
Nsa(dp257
S'penalty'
p258
g6
(g7
(S'S2'
I0
I1
tRp259
(I3
S'|'
NNNI2
I1
I0
tbS'l1'
tRp260
sS'C'
F0.11230177809777783
sS'class_weight'
p261
S'auto'
p262
sS'tol'
p263
F0.48842334963410422
sS'fit_intercept'
p264
I01
sa(dp265
S'penalty'
p266
g6
(g7
(S'S2'
I0
I1
tRp267
(I3
S'|'
NNNI2
I1
I0
tbS'l1'
tRp268
sS'C'
F0.007692916741991066
sS'class_weight'
p269
S'auto'
p270
sS'tol'
p271
F1.0681469681264324
sS'fit_intercept'
p272
I01
sa(dp273
S'penalty'
p274
g6
(g7
(S'S2'
I0
I1
tRp275
(I3
S'|'
NNNI2
I1
I0
tbS'l1'
tRp276
sS'C'
F0.00027520724019964145
sS'class_weight'
p277
S'auto'
p278
sS'tol'
p279
F2.0551115482838349
sS'fit_intercept'
p280
I01
sa(dp281
S'penalty'
p282
g6
(g7
(S'S2'
I0
I1
tRp283
(I3
S'|'
NNNI2
I1
I0
tbS'l1'
tRp284
sS'C'
F72.982346873847945
sS'class_weight'
p285
S'auto'
p286
sS'tol'
p287
F0.33062986503322578
sS'fit_intercept'
p288
I01
sa(dp289
S'penalty'
p290
g6
(g7
(S'S2'
I0
I1
tRp291
(I3
S'|'
NNNI2
I1
I0
tbS'l1'
tRp292
sS'C'
F0.389582244174774
sS'class_weight'
p293
S'auto'
p294
sS'tol'
p295
F5.8671465655334405
sS'fit_intercept'
p296
I01
sa(dp297
S'penalty'
p298
g6
(g7
(S'S2'
I0
I1
tRp299
(I3
S'|'
NNNI2
I1
I0
tbS'l1'
tRp300
sS'C'
F0.09222089117623089
sS'class_weight'
p301
S'auto'
p302
sS'tol'
p303
F0.45647497394317577
sS'fit_intercept'
p304
I01
sa(dp305
S'penalty'
p306
g6
(g7
(S'S2'
I0
I1
tRp307
(I3
S'|'
NNNI2
I1
I0
tbS'l1'
tRp308
sS'C'
F0.0034895567512200315
sS'class_weight'
p309
S'auto'
p310
sS'tol'
p311
F6.0983926963307287
sS'fit_intercept'
p312
I01
sa(dp313
S'penalty'
p314
g6
(g7
(S'S2'
I0
I1
tRp315
(I3
S'|'
NNNI2
I1
I0
tbS'l1'
tRp316
sS'C'
F0.3046142224767141
sS'class_weight'
p317
S'auto'
p318
sS'tol'
p319
F0.54691374336752352
sS'fit_intercept'
p320
I01
sa(dp321
S'penalty'
p322
g6
(g7
(S'S2'
I0
I1
tRp323
(I3
S'|'
NNNI2
I1
I0
tbS'l1'
tRp324
sS'C'
F1128.0652158161963
sS'class_weight'
p325
NsS'tol'
p326
F0.23155783907254182
sS'fit_intercept'
p327
I01
sa(dp328
S'penalty'
p329
g6
(g7
(S'S2'
I0
I1
tRp330
(I3
S'|'
NNNI2
I1
I0
tbS'l1'
tRp331
sS'C'
F71.634353340018123
sS'class_weight'
p332
NsS'tol'
p333
F2.3438657933984457
sS'fit_intercept'
p334
I01
sa(dp335
S'penalty'
p336
g6
(g7
(S'S2'
I0
I1
tRp337
(I3
S'|'
NNNI2
I1
I0
tbS'l1'
tRp338
sS'C'
F0.1204306826207011
sS'class_weight'
p339
NsS'tol'
p340
F0.26693041720768956
sS'fit_intercept'
p341
I01
sa(dp342
S'penalty'
p343
g6
(g7
(S'S2'
I0
I1
tRp344
(I3
S'|'
NNNI2
I1
I0
tbS'l1'
tRp345
sS'C'
F10.743820851117649
sS'class_weight'
p346
NsS'tol'
p347
F0.63706805480819972
sS'fit_intercept'
p348
I01
sa(dp349
S'penalty'
p350
g6
(g7
(S'S2'
I0
I1
tRp351
(I3
S'|'
NNNI2
I1
I0
tbS'l1'
tRp352
sS'C'
F0.061442395855499994
sS'class_weight'
p353
NsS'tol'
p354
F0.63078297283516327
sS'fit_intercept'
p355
I01
sa(dp356
S'penalty'
p357
g6
(g7
(S'S2'
I0
I1
tRp358
(I3
S'|'
NNNI2
I1
I0
tbS'l1'
tRp359
sS'C'
F21723.538307117047
sS'class_weight'
p360
S'auto'
p361
sS'tol'
p362
F0.51706589915645651
sS'fit_intercept'
p363
I00
sa(dp364
S'penalty'
p365
g6
(g7
(S'S2'
I0
I1
tRp366
(I3
S'|'
NNNI2
I1
I0
tbS'l1'
tRp367
sS'C'
F384.06639066797101
sS'class_weight'
p368
S'auto'
p369
sS'tol'
p370
F2.008499562972589
sS'fit_intercept'
p371
I00
sa(dp372
S'penalty'
p373
g6
(g7
(S'S2'
I0
I1
tRp374
(I3
S'|'
NNNI2
I1
I0
tbS'l1'
tRp375
sS'C'
F0.063126141584775905
sS'class_weight'
p376
S'auto'
p377
sS'tol'
p378
F0.64501555836077662
sS'fit_intercept'
p379
I00
sa(dp380
S'penalty'
p381
g6
(g7
(S'S2'
I0
I1
tRp382
(I3
S'|'
NNNI2
I1
I0
tbS'l1'
tRp383
sS'C'
F0.00081896762928095588
sS'class_weight'
p384
S'auto'
p385
sS'tol'
p386
F2.9761640289959677
sS'fit_intercept'
p387
I00
sa(dp388
S'penalty'
p389
g6
(g7
(S'S2'
I0
I1
tRp390
(I3
S'|'
NNNI2
I1
I0
tbS'l1'
tRp391
sS'C'
F1321.2955205396768
sS'class_weight'
p392
S'auto'
p393
sS'tol'
p394
F0.94536690850488492
sS'fit_intercept'
p395
I00
sa(dp396
S'penalty'
p397
g6
(g7
(S'S2'
I0
I1
tRp398
(I3
S'|'
NNNI2
I1
I0
tbS'l1'
tRp399
sS'C'
F255.93311906978124
sS'class_weight'
p400
S'auto'
p401
sS'tol'
p402
F0.38206826496752228
sS'fit_intercept'
p403
I00
sa(dp404
S'penalty'
p405
g6
(g7
(S'S2'
I0
I1
tRp406
(I3
S'|'
NNNI2
I1
I0
tbS'l1'
tRp407
sS'C'
F0.0094207939974183513
sS'class_weight'
p408
NsS'tol'
p409
F0.74166697056035413
sS'fit_intercept'
p410
I00
sa(dp411
S'penalty'
p412
g6
(g7
(S'S2'
I0
I1
tRp413
(I3
S'|'
NNNI2
I1
I0
tbS'l1'
tRp414
sS'C'
F115.42583637501511
sS'class_weight'
p415
NsS'tol'
p416
F0.38738248691211469
sS'fit_intercept'
p417
I00
sa(dp418
S'penalty'
p419
g6
(g7
(S'S2'
I0
I1
tRp420
(I3
S'|'
NNNI2
I1
I0
tbS'l1'
tRp421
sS'C'
F0.00053332227457145056
sS'class_weight'
p422
NsS'tol'
p423
F0.6948257237774389
sS'fit_intercept'
p424
I00
sa(dp425
S'penalty'
p426
g6
(g7
(S'S2'
I0
I1
tRp427
(I3
S'|'
NNNI2
I1
I0
tbS'l1'
tRp428
sS'C'
F0.060530129778058731
sS'class_weight'
p429
NsS'tol'
p430
F1.911484466742708
sS'fit_intercept'
p431
I00
sa(dp432
S'penalty'
p433
g6
(g7
(S'S2'
I0
I1
tRp434
(I3
S'|'
NNNI2
I1
I0
tbS'l1'
tRp435
sS'C'
F0.028923031241528476
sS'class_weight'
p436
NsS'tol'
p437
F0.4702500187012334
sS'fit_intercept'
p438
I00
sa.