(cnumpy.core.multiarray
scalar
p1
(cnumpy
dtype
p2
(S'f8'
I0
I1
tRp3
(I3
S'<'
NNNI-1
I-1
I0
tbS'L\xcbq\xaf>\x9e\xb6\xbf'
tRp4
g1
(g3
S'\xbc\xbb\xbb\xbb\xbb*Y?'
tRp5
(dp6
S'C'
F0.0013140637127479465
sS'dual'
p7
I01
sS'fit_intercept'
p8
I01
sS'penalty'
p9
g1
(g2
(S'S2'
I0
I1
tRp10
(I3
S'|'
NNNI2
I1
I0
tbS'l2'
tRp11
sS'tol'
p12
F3.7308789518529553
sS'class_weight'
p13
S'auto'
p14
st.(cnumpy.core.multiarray
scalar
p1
(cnumpy
dtype
p2
(S'f8'
I0
I1
tRp3
(I3
S'<'
NNNI-1
I-1
I0
tbS'\t\x95\t\x1b\tg\xb5?'
tRp4
g1
(g3
S'DDDD\xc4\x05V?'
tRp5
(dp6
S'penalty'
p7
g1
(g2
(S'S2'
I0
I1
tRp8
(I3
S'|'
NNNI2
I1
I0
tbS'l1'
tRp9
sS'C'
F0.11230177809777783
sS'fit_intercept'
p10
I01
sS'tol'
p11
F0.48842334963410422
sS'class_weight'
p12
S'auto'
p13
st.(cnumpy.core.multiarray
scalar
p1
(cnumpy
dtype
p2
(S'f8'
I0
I1
tRp3
(I3
S'<'
NNNI-1
I-1
I0
tbS'<\xb4.\x0f\x1e\xd3\xc0\xbf'
tRp4
g1
(g3
S'UUUU\xd5=Z?'
tRp5
(dp6
S'C'
F5.423215678491655e-05
sS'dual'
p7
I01
sS'fit_intercept'
p8
I00
sS'penalty'
p9
g1
(g2
(S'S2'
I0
I1
tRp10
(I3
S'|'
NNNI2
I1
I0
tbS'l2'
tRp11
sS'tol'
p12
F0.32221025518947483
sS'class_weight'
p13
Nst.(cnumpy.core.multiarray
scalar
p1
(cnumpy
dtype
p2
(S'f8'
I0
I1
tRp3
(I3
S'<'
NNNI-1
I-1
I0
tbS'\xa5\x86\xdb\xe3\x87b\xd3?'
tRp4
g1
(g3
S'wwww\xf7\xf4T?'
tRp5
(dp6
S'C'
F62.718368855927935
sS'dual'
p7
I00
sS'fit_intercept'
p8
I01
sS'penalty'
p9
g1
(g2
(S'S2'
I0
I1
tRp10
(I3
S'|'
NNNI2
I1
I0
tbS'l2'
tRp11
sS'tol'
p12
F0.64137956533176643
sS'class_weight'
p13
S'auto'
p14
st.(cnumpy.core.multiarray
scalar
p1
(cnumpy
dtype
p2
(S'f8'
I0
I1
tRp3
(I3
S'<'
NNNI-1
I-1
I0
tbS'\xc3\xe3\xb4q\xcd\xc3\xa6?'
tRp4
g1
(g3
S'wwwwwfT?'
tRp5
(dp6
S'C'
F0.0057290214381554893
sS'dual'
p7
I00
sS'fit_intercept'
p8
I01
sS'penalty'
p9
g1
(g2
(S'S2'
I0
I1
tRp10
(I3
S'|'
NNNI2
I1
I0
tbS'l2'
tRp11
sS'tol'
p12
F1.4623903142827035
sS'class_weight'
p13
S'auto'
p14
st.(cnumpy.core.multiarray
scalar
p1
(cnumpy
dtype
p2
(S'f8'
I0
I1
tRp3
(I3
S'<'
NNNI-1
I-1
I0
tbS'\xd0/SN\xb8H\xb7\xbf'
tRp4
g1
(g3
S'\x11\x11\x11\x11\x11\xfaR?'
tRp5
(dp6
S'penalty'
p7
g1
(g2
(S'S2'
I0
I1
tRp8
(I3
S'|'
NNNI2
I1
I0
tbS'l1'
tRp9
sS'C'
F0.007692916741991066
sS'fit_intercept'
p10
I01
sS'tol'
p11
F1.0681469681264324
sS'class_weight'
p12
S'auto'
p13
st.(cnumpy.core.multiarray
scalar
p1
(cnumpy
dtype
p2
(S'f8'
I0
I1
tRp3
(I3
S'<'
NNNI-1
I-1
I0
tbS'\x83\x1a\xb7\xf0\xb8\xc8\xe4?'
tRp4
g1
(g3
S'\xbc\xbb\xbb\xbbG1\xa7?'
tRp5
(dp6
S'C'
F7.3319607526677055
sS'dual'
p7
I01
sS'fit_intercept'
p8
I01
sS'penalty'
p9
g1
(g2
(S'S2'
I0
I1
tRp10
(I3
S'|'
NNNI2
I1
I0
tbS'l2'
tRp11
sS'tol'
p12
F0.1971519652124564
sS'class_weight'
p13
Nst.(cnumpy.core.multiarray
scalar
p1
(cnumpy
dtype
p2
(S'f8'
I0
I1
tRp3
(I3
S'<'
NNNI-1
I-1
I0
tbS'\x80\x1a\x9e\x89\xeb5\xd3?'
tRp4
g1
(g3
S'\x89\x88\x88\x88\x08\xf8X?'
tRp5
(dp6
S'C'
F233.29248153257251
sS'dual'
p7
I00
sS'fit_intercept'
p8
I00
sS'penalty'
p9
g1
(g2
(S'S2'
I0
I1
tRp10
(I3
S'|'
NNNI2
I1
I0
tbS'l2'
tRp11
sS'tol'
p12
F1.5544853805145351
sS'class_weight'
p13
S'auto'
p14
st.(cnumpy.core.multiarray
scalar
p1
(cnumpy
dtype
p2
(S'f8'
I0
I1
tRp3
(I3
S'<'
NNNI-1
I-1
I0
tbS'm\x85he\x1e;\xe3?'
tRp4
g1
(g3
S'DDDD\xc4\xe2`?'
tRp5
(dp6
S'C'
F454.25548405751169
sS'dual'
p7
I00
sS'fit_intercept'
p8
I01
sS'penalty'
p9
g1
(g2
(S'S2'
I0
I1
tRp10
(I3
S'|'
NNNI2
I1
I0
tbS'l2'
tRp11
sS'tol'
p12
F0.24446797484766963
sS'class_weight'
p13
Nst.(cnumpy.core.multiarray
scalar
p1
(cnumpy
dtype
p2
(S'f8'
I0
I1
tRp3
(I3
S'<'
NNNI-1
I-1
I0
tbS'\xb9\xd6\x864_\x01\xb6\xbf'
tRp4
g1
(g3
S'\xef\xee\xee\xee\xee.S?'
tRp5
(dp6
S'penalty'
p7
g1
(g2
(S'S2'
I0
I1
tRp8
(I3
S'|'
NNNI2
I1
I0
tbS'l1'
tRp9
sS'C'
F0.0094207939974183513
sS'fit_intercept'
p10
I00
sS'tol'
p11
F0.74166697056035413
sS'class_weight'
p12
Nst.(cnumpy.core.multiarray
scalar
p1
(cnumpy
dtype
p2
(S'f8'
I0
I1
tRp3
(I3
S'<'
NNNI-1
I-1
I0
tbS'\xb3w\xb8\xac\xc0\xac\xc1\xbf'
tRp4
g1
(g3
S'\x00\x00\x00\x00\x00\x99S?'
tRp5
(dp6
S'penalty'
p7
g1
(g2
(S'S2'
I0
I1
tRp8
(I3
S'|'
NNNI2
I1
I0
tbS'l1'
tRp9
sS'C'
F0.00027520724019964145
sS'fit_intercept'
p10
I01
sS'tol'
p11
F2.0551115482838349
sS'class_weight'
p12
S'auto'
p13
st.(cnumpy.core.multiarray
scalar
p1
(cnumpy
dtype
p2
(S'f8'
I0
I1
tRp3
(I3
S'<'
NNNI-1
I-1
I0
tbS'5\xd8~\x13\xf7\xec\xdd?'
tRp4
g1
(g3
S'\xef\xee\xee\xee\xee\xd5Z?'
tRp5
(dp6
S'C'
F75.295418521981773
sS'dual'
p7
I00
sS'fit_intercept'
p8
I01
sS'penalty'
p9
g1
(g2
(S'S2'
I0
I1
tRp10
(I3
S'|'
NNNI2
I1
I0
tbS'l2'
tRp11
sS'tol'
p12
F0.33376549294839425
sS'class_weight'
p13
S'auto'
p14
st.(cnumpy.core.multiarray
scalar
p1
(cnumpy
dtype
p2
(S'f8'
I0
I1
tRp3
(I3
S'<'
NNNI-1
I-1
I0
tbS')/\xca\x03\xcf\xf3\xe1?'
tRp4
g1
(g3
S'\x11\x11\x11\x11\x91ob?'
tRp5
(dp6
S'penalty'
p7
g1
(g2
(S'S2'
I0
I1
tRp8
(I3
S'|'
NNNI2
I1
I0
tbS'l1'
tRp9
sS'C'
F1128.0652158161963
sS'fit_intercept'
p10
I01
sS'tol'
p11
F0.23155783907254182
sS'class_weight'
p12
Nst.(cnumpy.core.multiarray
scalar
p1
(cnumpy
dtype
p2
(S'f8'
I0
I1
tRp3
(I3
S'<'
NNNI-1
I-1
I0
tbS'\x84C9\xd5\t\x1d\xe0?'
tRp4
g1
(g3
S'\xab\xaa\xaa\xaa*:^?'
tRp5
(dp6
S'penalty'
p7
g1
(g2
(S'S2'
I0
I1
tRp8
(I3
S'|'
NNNI2
I1
I0
tbS'l1'
tRp9
sS'C'
F115.42583637501511
sS'fit_intercept'
p10
I00
sS'tol'
p11
F0.38738248691211469
sS'class_weight'
p12
Nst.(cnumpy.core.multiarray
scalar
p1
(cnumpy
dtype
p2
(S'f8'
I0
I1
tRp3
(I3
S'<'
NNNI-1
I-1
I0
tbS'v\x95\xdb\x8b\x88\x16\xc2\xbf'
tRp4
g1
(g3
S'\x00\x00\x00\x00\x80\x85Q?'
tRp5
(dp6
S'penalty'
p7
g1
(g2
(S'S2'
I0
I1
tRp8
(I3
S'|'
NNNI2
I1
I0
tbS'l1'
tRp9
sS'C'
F0.00053332227457145056
sS'fit_intercept'
p10
I00
sS'tol'
p11
F0.6948257237774389
sS'class_weight'
p12
Nst.(cnumpy.core.multiarray
scalar
p1
(cnumpy
dtype
p2
(S'f8'
I0
I1
tRp3
(I3
S'<'
NNNI-1
I-1
I0
tbS'!\x7fj\xc6\xe4:\xc6?'
tRp4
g1
(g3
S'\xbc\xbb\xbb\xbb;\xc6W?'
tRp5
(dp6
S'penalty'
p7
g1
(g2
(S'S2'
I0
I1
tRp8
(I3
S'|'
NNNI2
I1
I0
tbS'l1'
tRp9
sS'C'
F21723.538307117047
sS'fit_intercept'
p10
I00
sS'tol'
p11
F0.51706589915645651
sS'class_weight'
p12
S'auto'
p13
st.(cnumpy.core.multiarray
scalar
p1
(cnumpy
dtype
p2
(S'f8'
I0
I1
tRp3
(I3
S'<'
NNNI-1
I-1
I0
tbS'\xbd\xb3>\xcfK\xcb\xd1?'
tRp4
g1
(g3
S'\xbc\xbb\xbb\xbb\xbbGV?'
tRp5
(dp6
S'C'
F0.023436277706637938
sS'dual'
p7
I00
sS'fit_intercept'
p8
I00
sS'penalty'
p9
g1
(g2
(S'S2'
I0
I1
tRp10
(I3
S'|'
NNNI2
I1
I0
tbS'l2'
tRp11
sS'tol'
p12
F1.1606705808824798
sS'class_weight'
p13
Nst.(cnumpy.core.multiarray
scalar
p1
(cnumpy
dtype
p2
(S'f8'
I0
I1
tRp3
(I3
S'<'
NNNI-1
I-1
I0
tbS'9&\x99\xba^V\x9c\xbf'
tRp4
g1
(g3
S'\x9a\x99\x99\x99\x99.U?'
tRp5
(dp6
S'penalty'
p7
g1
(g2
(S'S2'
I0
I1
tRp8
(I3
S'|'
NNNI2
I1
I0
tbS'l1'
tRp9
sS'C'
F71.634353340018123
sS'fit_intercept'
p10
I01
sS'tol'
p11
F2.3438657933984457
sS'class_weight'
p12
Nst.(cnumpy.core.multiarray
scalar
p1
(cnumpy
dtype
p2
(S'f8'
I0
I1
tRp3
(I3
S'<'
NNNI-1
I-1
I0
tbS'v\x03\xfcn\xf8x\xdc?'
tRp4
g1
(g3
S'DDDD\x84\x83i?'
tRp5
(dp6
S'C'
F0.12400507390787747
sS'dual'
p7
I01
sS'fit_intercept'
p8
I00
sS'penalty'
p9
g1
(g2
(S'S2'
I0
I1
tRp10
(I3
S'|'
NNNI2
I1
I0
tbS'l2'
tRp11
sS'tol'
p12
F0.34057620111934028
sS'class_weight'
p13
S'auto'
p14
st.(cnumpy.core.multiarray
scalar
p1
(cnumpy
dtype
p2
(S'f8'
I0
I1
tRp3
(I3
S'<'
NNNI-1
I-1
I0
tbS'\xcc\x987jM\xef\xe3?'
tRp4
g1
(g3
S'""""B\xcfs?'
tRp5
(dp6
S'C'
F0.89458365408912355
sS'dual'
p7
I01
sS'fit_intercept'
p8
I01
sS'penalty'
p9
g1
(g2
(S'S2'
I0
I1
tRp10
(I3
S'|'
NNNI2
I1
I0
tbS'l2'
tRp11
sS'tol'
p12
F1.3022552491199642
sS'class_weight'
p13
Nst.(cnumpy.core.multiarray
scalar
p1
(cnumpy
dtype
p2
(S'f8'
I0
I1
tRp3
(I3
S'<'
NNNI-1
I-1
I0
tbS'N\xa4\x88\xfe\xcb&\xe7?'
tRp4
g1
(g3
S'ffffZ8\xd6?'
tRp5
(dp6
S'C'
F12685.867639371836
sS'dual'
p7
I01
sS'fit_intercept'
p8
I01
sS'penalty'
p9
g1
(g2
(S'S2'
I0
I1
tRp10
(I3
S'|'
NNNI2
I1
I0
tbS'l2'
tRp11
sS'tol'
p12
F1.7104623679436326
sS'class_weight'
p13
S'auto'
p14
st.(cnumpy.core.multiarray
scalar
p1
(cnumpy
dtype
p2
(S'f8'
I0
I1
tRp3
(I3
S'<'
NNNI-1
I-1
I0
tbS'@\xc2\x04\xe5"\x98\x93\xbf'
tRp4
g1
(g3
S'\xde\xdd\xdd\xdd\xdd\x18Z?'
tRp5
(dp6
S'penalty'
p7
g1
(g2
(S'S2'
I0
I1
tRp8
(I3
S'|'
NNNI2
I1
I0
tbS'l1'
tRp9
sS'C'
F384.06639066797101
sS'fit_intercept'
p10
I00
sS'tol'
p11
F2.008499562972589
sS'class_weight'
p12
S'auto'
p13
st.(cnumpy.core.multiarray
scalar
p1
(cnumpy
dtype
p2
(S'f8'
I0
I1
tRp3
(I3
S'<'
NNNI-1
I-1
I0
tbS'v\xcfS3e*\x8f?'
tRp4
g1
(g3
S'"""""\x84b?'
tRp5
(dp6
S'C'
F0.0020273613487915526
sS'dual'
p7
I01
sS'fit_intercept'
p8
I00
sS'penalty'
p9
g1
(g2
(S'S2'
I0
I1
tRp10
(I3
S'|'
NNNI2
I1
I0
tbS'l2'
tRp11
sS'tol'
p12
F1.1221054533336887
sS'class_weight'
p13
Nst.(cnumpy.core.multiarray
scalar
p1
(cnumpy
dtype
p2
(S'f8'
I0
I1
tRp3
(I3
S'<'
NNNI-1
I-1
I0
tbS',Ra\xcc\xf8\xf6|\xbf'
tRp4
g1
(g3
S'\x11\x11\x11\x11\x91-V?'
tRp5
(dp6
S'penalty'
p7
g1
(g2
(S'S2'
I0
I1
tRp8
(I3
S'|'
NNNI2
I1
I0
tbS'l1'
tRp9
sS'C'
F0.063126141584775905
sS'fit_intercept'
p10
I00
sS'tol'
p11
F0.64501555836077662
sS'class_weight'
p12
S'auto'
p13
st.(cnumpy.core.multiarray
scalar
p1
(cnumpy
dtype
p2
(S'f8'
I0
I1
tRp3
(I3
S'<'
NNNI-1
I-1
I0
tbS"\xcfw1\x96\xc6'\xd1?"
tRp4
g1
(g3
S'3333\xb3\x15W?'
tRp5
(dp6
S'C'
F0.018171283877394598
sS'dual'
p7
I00
sS'fit_intercept'
p8
I00
sS'penalty'
p9
g1
(g2
(S'S2'
I0
I1
tRp10
(I3
S'|'
NNNI2
I1
I0
tbS'l2'
tRp11
sS'tol'
p12
F1.5793298766192458
sS'class_weight'
p13
Nst.(cnumpy.core.multiarray
scalar
p1
(cnumpy
dtype
p2
(S'f8'
I0
I1
tRp3
(I3
S'<'
NNNI-1
I-1
I0
tbS'\x9bG\xc8R\x92\xde\xb3\xbf'
tRp4
g1
(g3
S'\xab\xaa\xaa\xaa*\xb3S?'
tRp5
(dp6
S'C'
F2434.8816616800523
sS'dual'
p7
I00
sS'fit_intercept'
p8
I01
sS'penalty'
p9
g1
(g2
(S'S2'
I0
I1
tRp10
(I3
S'|'
NNNI2
I1
I0
tbS'l2'
tRp11
sS'tol'
p12
F3.974803747445729
sS'class_weight'
p13
Nst.(cnumpy.core.multiarray
scalar
p1
(cnumpy
dtype
p2
(S'f8'
I0
I1
tRp3
(I3
S'<'
NNNI-1
I-1
I0
tbS'\xb05\xc9T\x8b-\xc2?'
tRp4
g1
(g3
S'\x89\x88\x88\x88\x88\x80Y?'
tRp5
(dp6
S'penalty'
p7
g1
(g2
(S'S2'
I0
I1
tRp8
(I3
S'|'
NNNI2
I1
I0
tbS'l1'
tRp9
sS'C'
F0.060530129778058731
sS'fit_intercept'
p10
I00
sS'tol'
p11
F1.911484466742708
sS'class_weight'
p12
Nst.(cnumpy.core.multiarray
scalar
p1
(cnumpy
dtype
p2
(S'f8'
I0
I1
tRp3
(I3
S'<'
NNNI-1
I-1
I0
tbS'\r?\xa2T\x82_\xc1\xbf'
tRp4
g1
(g3
S'\xab\xaa\xaa\xaa\xaa\xc1S?'
tRp5
(dp6
S'penalty'
p7
g1
(g2
(S'S2'
I0
I1
tRp8
(I3
S'|'
NNNI2
I1
I0
tbS'l1'
tRp9
sS'C'
F0.00081896762928095588
sS'fit_intercept'
p10
I00
sS'tol'
p11
F2.9761640289959677
sS'class_weight'
p12
S'auto'
p13
st.(cnumpy.core.multiarray
scalar
p1
(cnumpy
dtype
p2
(S'f8'
I0
I1
tRp3
(I3
S'<'
NNNI-1
I-1
I0
tbS'"\x11>RA\xfd\xd5?'
tRp4
g1
(g3
S'UUUU\xd5&W?'
tRp5
(dp6
S'C'
F140.26757598621381
sS'dual'
p7
I00
sS'fit_intercept'
p8
I01
sS'penalty'
p9
g1
(g2
(S'S2'
I0
I1
tRp10
(I3
S'|'
NNNI2
I1
I0
tbS'l2'
tRp11
sS'tol'
p12
F1.062202301279541
sS'class_weight'
p13
Nst.(cnumpy.core.multiarray
scalar
p1
(cnumpy
dtype
p2
(S'f8'
I0
I1
tRp3
(I3
S'<'
NNNI-1
I-1
I0
tbS'?\x1cIs\xff\xb5\x88\xbf'
tRp4
g1
(g3
S'\xab\xaa\xaa\xaa*8U?'
tRp5
(dp6
S'penalty'
p7
g1
(g2
(S'S2'
I0
I1
tRp8
(I3
S'|'
NNNI2
I1
I0
tbS'l1'
tRp9
sS'C'
F1321.2955205396768
sS'fit_intercept'
p10
I00
sS'tol'
p11
F0.94536690850488492
sS'class_weight'
p12
S'auto'
p13
st.(cnumpy.core.multiarray
scalar
p1
(cnumpy
dtype
p2
(S'f8'
I0
I1
tRp3
(I3
S'<'
NNNI-1
I-1
I0
tbS'Q\xf4$\xffLg\xdb?'
tRp4
g1
(g3
S'wwww\xb7\xc3`?'
tRp5
(dp6
S'penalty'
p7
g1
(g2
(S'S2'
I0
I1
tRp8
(I3
S'|'
NNNI2
I1
I0
tbS'l1'
tRp9
sS'C'
F0.1204306826207011
sS'fit_intercept'
p10
I01
sS'tol'
p11
F0.26693041720768956
sS'class_weight'
p12
Nst.(cnumpy.core.multiarray
scalar
p1
(cnumpy
dtype
p2
(S'f8'
I0
I1
tRp3
(I3
S'<'
NNNI-1
I-1
I0
tbS'd\xee:\xf2/\x08\xd6?'
tRp4
g1
(g3
S'\xef\xee\xee\xee\xee\xf8V?'
tRp5
(dp6
S'C'
F2250.1376447718098
sS'dual'
p7
I00
sS'fit_intercept'
p8
I00
sS'penalty'
p9
g1
(g2
(S'S2'
I0
I1
tRp10
(I3
S'|'
NNNI2
I1
I0
tbS'l2'
tRp11
sS'tol'
p12
F1.9057782396769842
sS'class_weight'
p13
Nst.(cnumpy.core.multiarray
scalar
p1
(cnumpy
dtype
p2
(S'f8'
I0
I1
tRp3
(I3
S'<'
NNNI-1
I-1
I0
tbS'\x8e\xdd\x1b\xc8u7\xd1?'
tRp4
g1
(g3
S'\xde\xdd\xdd\xdd]\xccX?'
tRp5
(dp6
S'penalty'
p7
g1
(g2
(S'S2'
I0
I1
tRp8
(I3
S'|'
NNNI2
I1
I0
tbS'l1'
tRp9
sS'C'
F255.93311906978124
sS'fit_intercept'
p10
I00
sS'tol'
p11
F0.38206826496752228
sS'class_weight'
p12
S'auto'
p13
st.(cnumpy.core.multiarray
scalar
p1
(cnumpy
dtype
p2
(S'f8'
I0
I1
tRp3
(I3
S'<'
NNNI-1
I-1
I0
tbS'\xb4\x9d\xa9\x0c@\t\xe5?'
tRp4
g1
(g3
S'\xef\xee\xeenB\xf7\xd4?'
tRp5
(dp6
S'C'
F645.7907152890657
sS'dual'
p7
I01
sS'fit_intercept'
p8
I00
sS'penalty'
p9
g1
(g2
(S'S2'
I0
I1
tRp10
(I3
S'|'
NNNI2
I1
I0
tbS'l2'
tRp11
sS'tol'
p12
F0.94933828590472213
sS'class_weight'
p13
Nst.(cnumpy.core.multiarray
scalar
p1
(cnumpy
dtype
p2
(S'f8'
I0
I1
tRp3
(I3
S'<'
NNNI-1
I-1
I0
tbS'\x9av\xd6\x887\x80\xd3?'
tRp4
g1
(g3
S'UUUU\x15\x88d?'
tRp5
(dp6
S'penalty'
p7
g1
(g2
(S'S2'
I0
I1
tRp8
(I3
S'|'
NNNI2
I1
I0
tbS'l1'
tRp9
sS'C'
F72.982346873847945
sS'fit_intercept'
p10
I01
sS'tol'
p11
F0.33062986503322578
sS'class_weight'
p12
S'auto'
p13
st.(cnumpy.core.multiarray
scalar
p1
(cnumpy
dtype
p2
(S'f8'
I0
I1
tRp3
(I3
S'<'
NNNI-1
I-1
I0
tbS'<\xe0\x1a\x8dq#\xb1\xbf'
tRp4
g1
(g3
S'\xcd\xcc\xcc\xcc\xcc\xa4U?'
tRp5
(dp6
S'penalty'
p7
g1
(g2
(S'S2'
I0
I1
tRp8
(I3
S'|'
NNNI2
I1
I0
tbS'l1'
tRp9
sS'C'
F0.389582244174774
sS'fit_intercept'
p10
I01
sS'tol'
p11
F5.8671465655334405
sS'class_weight'
p12
S'auto'
p13
st.(cnumpy.core.multiarray
scalar
p1
(cnumpy
dtype
p2
(S'f8'
I0
I1
tRp3
(I3
S'<'
NNNI-1
I-1
I0
tbS'z\xdb\x01?\x82\x1d\xdd?'
tRp4
g1
(g3
S'3333\xb3\xf7Z?'
tRp5
(dp6
S'C'
F20.859904150424637
sS'dual'
p7
I00
sS'fit_intercept'
p8
I00
sS'penalty'
p9
g1
(g2
(S'S2'
I0
I1
tRp10
(I3
S'|'
NNNI2
I1
I0
tbS'l2'
tRp11
sS'tol'
p12
F0.3475529213594491
sS'class_weight'
p13
S'auto'
p14
st.(cnumpy.core.multiarray
scalar
p1
(cnumpy
dtype
p2
(S'f8'
I0
I1
tRp3
(I3
S'<'
NNNI-1
I-1
I0
tbS'\xf1MV3\x9d\x7f\xde?'
tRp4
g1
(g3
S'\xcd\xcc\xcc\xccLi[?'
tRp5
(dp6
S'C'
F54.686964215872898
sS'dual'
p7
I00
sS'fit_intercept'
p8
I01
sS'penalty'
p9
g1
(g2
(S'S2'
I0
I1
tRp10
(I3
S'|'
NNNI2
I1
I0
tbS'l2'
tRp11
sS'tol'
p12
F0.36568806828252459
sS'class_weight'
p13
S'auto'
p14
st.(cnumpy.core.multiarray
scalar
p1
(cnumpy
dtype
p2
(S'f8'
I0
I1
tRp3
(I3
S'<'
NNNI-1
I-1
I0
tbS'\xde\xcc?Q\xf6<\xd0?'
tRp4
g1
(g3
S'\xcd\xcc\xcc\xcc\xcc\xe4Z?'
tRp5
(dp6
S'C'
F0.022659143244815754
sS'dual'
p7
I00
sS'fit_intercept'
p8
I00
sS'penalty'
p9
g1
(g2
(S'S2'
I0
I1
tRp10
(I3
S'|'
NNNI2
I1
I0
tbS'l2'
tRp11
sS'tol'
p12
F0.077917766726638138
sS'class_weight'
p13
S'auto'
p14
st.(cnumpy.core.multiarray
scalar
p1
(cnumpy
dtype
p2
(S'f8'
I0
I1
tRp3
(I3
S'<'
NNNI-1
I-1
I0
tbS'f\xb5\xde\xdd\x8cp\xdb?'
tRp4
g1
(g3
S'\x9a\x99\x99\x99\x99\xa1[?'
tRp5
(dp6
S'penalty'
p7
g1
(g2
(S'S2'
I0
I1
tRp8
(I3
S'|'
NNNI2
I1
I0
tbS'l1'
tRp9
sS'C'
F10.743820851117649
sS'fit_intercept'
p10
I01
sS'tol'
p11
F0.63706805480819972
sS'class_weight'
p12
Nst.(cnumpy.core.multiarray
scalar
p1
(cnumpy
dtype
p2
(S'f8'
I0
I1
tRp3
(I3
S'<'
NNNI-1
I-1
I0
tbS'\xd6jnz\xb7\x89\xac?'
tRp4
g1
(g3
S'\xef\xee\xee\xeen\x17W?'
tRp5
(dp6
S'penalty'
p7
g1
(g2
(S'S2'
I0
I1
tRp8
(I3
S'|'
NNNI2
I1
I0
tbS'l1'
tRp9
sS'C'
F0.09222089117623089
sS'fit_intercept'
p10
I01
sS'tol'
p11
F0.45647497394317577
sS'class_weight'
p12
S'auto'
p13
st.(cnumpy.core.multiarray
scalar
p1
(cnumpy
dtype
p2
(S'f8'
I0
I1
tRp3
(I3
S'<'
NNNI-1
I-1
I0
tbS'\x9f\x8a\xe7$\xd5\xf8\xe4?'
tRp4
g1
(g3
S'\xef\xee\xee\xeenMo?'
tRp5
(dp6
S'C'
F23.010864500892932
sS'dual'
p7
I01
sS'fit_intercept'
p8
I00
sS'penalty'
p9
g1
(g2
(S'S2'
I0
I1
tRp10
(I3
S'|'
NNNI2
I1
I0
tbS'l2'
tRp11
sS'tol'
p12
F9.7759667460803978
sS'class_weight'
p13
S'auto'
p14
st.(cnumpy.core.multiarray
scalar
p1
(cnumpy
dtype
p2
(S'f8'
I0
I1
tRp3
(I3
S'<'
NNNI-1
I-1
I0
tbS'\x04\\\x97\xc5\x89\x03\xb5\xbf'
tRp4
g1
(g3
S'\xcd\xcc\xcc\xcc\xcc\xf4U?'
tRp5
(dp6
S'C'
F0.00034280181436015266
sS'dual'
p7
I00
sS'fit_intercept'
p8
I00
sS'penalty'
p9
g1
(g2
(S'S2'
I0
I1
tRp10
(I3
S'|'
NNNI2
I1
I0
tbS'l2'
tRp11
sS'tol'
p12
F0.61771809909324527
sS'class_weight'
p13
Nst.(cnumpy.core.multiarray
scalar
p1
(cnumpy
dtype
p2
(S'f8'
I0
I1
tRp3
(I3
S'<'
NNNI-1
I-1
I0
tbS's\x83\x8f\xae\x8c\r\xc0\xbf'
tRp4
g1
(g3
S'DDDD\xc4BS?'
tRp5
(dp6
S'penalty'
p7
g1
(g2
(S'S2'
I0
I1
tRp8
(I3
S'|'
NNNI2
I1
I0
tbS'l1'
tRp9
sS'C'
F0.0034895567512200315
sS'fit_intercept'
p10
I01
sS'tol'
p11
F6.0983926963307287
sS'class_weight'
p12
S'auto'
p13
st.(cnumpy.core.multiarray
scalar
p1
(cnumpy
dtype
p2
(S'f8'
I0
I1
tRp3
(I3
S'<'
NNNI-1
I-1
I0
tbS'"Y\xe2\xbc\xf1\xaa\xe5?'
tRp4
g1
(g3
S'\x11\x11\x11\x11\x8bK\xd4?'
tRp5
(dp6
S'C'
F156.18064836783714
sS'dual'
p7
I01
sS'fit_intercept'
p8
I01
sS'penalty'
p9
g1
(g2
(S'S2'
I0
I1
tRp10
(I3
S'|'
NNNI2
I1
I0
tbS'l2'
tRp11
sS'tol'
p12
F0.27421147011660185
sS'class_weight'
p13
S'auto'
p14
st.(cnumpy.core.multiarray
scalar
p1
(cnumpy
dtype
p2
(S'f8'
I0
I1
tRp3
(I3
S'<'
NNNI-1
I-1
I0
tbS'D\xd8\xb2\xfd\xb4\xa3\xd2?'
tRp4
g1
(g3
S'\xef\xee\xee\xee\xeeoZ?'
tRp5
(dp6
S'penalty'
p7
g1
(g2
(S'S2'
I0
I1
tRp8
(I3
S'|'
NNNI2
I1
I0
tbS'l1'
tRp9
sS'C'
F0.061442395855499994
sS'fit_intercept'
p10
I01
sS'tol'
p11
F0.63078297283516327
sS'class_weight'
p12
Nst.(cnumpy.core.multiarray
scalar
p1
(cnumpy
dtype
p2
(S'f8'
I0
I1
tRp3
(I3
S'<'
NNNI-1
I-1
I0
tbS'\xe3\xfb^\xa8\xeep\xe0?'
tRp4
g1
(g3
S'\xab\xaa\xaa\xaa*\xf7[?'
tRp5
(dp6
S'C'
F9.783507244275599
sS'dual'
p7
I00
sS'fit_intercept'
p8
I01
sS'penalty'
p9
g1
(g2
(S'S2'
I0
I1
tRp10
(I3
S'|'
NNNI2
I1
I0
tbS'l2'
tRp11
sS'tol'
p12
F0.4361482675224137
sS'class_weight'
p13
Nst.(cnumpy.core.multiarray
scalar
p1
(cnumpy
dtype
p2
(S'f8'
I0
I1
tRp3
(I3
S'<'
NNNI-1
I-1
I0
tbS'D\xe9\xe4\xb57w\xd6?'
tRp4
g1
(g3
S'\xcd\xcc\xcc\xcc\x0c\xdeb?'
tRp5
(dp6
S'C'
F0.024390819667274247
sS'dual'
p7
I01
sS'fit_intercept'
p8
I00
sS'penalty'
p9
g1
(g2
(S'S2'
I0
I1
tRp10
(I3
S'|'
NNNI2
I1
I0
tbS'l2'
tRp11
sS'tol'
p12
F0.59630358189626098
sS'class_weight'
p13
Nst.(cnumpy.core.multiarray
scalar
p1
(cnumpy
dtype
p2
(S'f8'
I0
I1
tRp3
(I3
S'<'
NNNI-1
I-1
I0
tbS'\xa6\xbc\xd3\xb2X\x8d\xe3?'
tRp4
g1
(g3
S'\xcd\xcc\xcc\xcc\xcc\x87s?'
tRp5
(dp6
S'C'
F0.96010360541793105
sS'dual'
p7
I01
sS'fit_intercept'
p8
I00
sS'penalty'
p9
g1
(g2
(S'S2'
I0
I1
tRp10
(I3
S'|'
NNNI2
I1
I0
tbS'l2'
tRp11
sS'tol'
p12
F1.4792117160889782
sS'class_weight'
p13
Nst.(cnumpy.core.multiarray
scalar
p1
(cnumpy
dtype
p2
(S'f8'
I0
I1
tRp3
(I3
S'<'
NNNI-1
I-1
I0
tbS'|\xcf\xc0\xf9\x10\xfc\xd5?'
tRp4
g1
(g3
S"DDDD\xc4'V?"
tRp5
(dp6
S'C'
F484.98743663540097
sS'dual'
p7
I00
sS'fit_intercept'
p8
I00
sS'penalty'
p9
g1
(g2
(S'S2'
I0
I1
tRp10
(I3
S'|'
NNNI2
I1
I0
tbS'l2'
tRp11
sS'tol'
p12
F2.0607399664219312
sS'class_weight'
p13
Nst.(cnumpy.core.multiarray
scalar
p1
(cnumpy
dtype
p2
(S'f8'
I0
I1
tRp3
(I3
S'<'
NNNI-1
I-1
I0
tbS'w\xf65\x12(}\xc2?'
tRp4
g1
(g3
S'\x11\x11\x11\x11\x11\x91Y?'
tRp5
(dp6
S'penalty'
p7
g1
(g2
(S'S2'
I0
I1
tRp8
(I3
S'|'
NNNI2
I1
I0
tbS'l1'
tRp9
sS'C'
F0.028923031241528476
sS'fit_intercept'
p10
I00
sS'tol'
p11
F0.4702500187012334
sS'class_weight'
p12
Nst.(cnumpy.core.multiarray
scalar
p1
(cnumpy
dtype
p2
(S'f8'
I0
I1
tRp3
(I3
S'<'
NNNI-1
I-1
I0
tbS'iy\xfa\xdc\x10\xc6\xd7?'
tRp4
g1
(g3
S'wwwww{W?'
tRp5
(dp6
S'C'
F4803.0500343074855
sS'dual'
p7
I00
sS'fit_intercept'
p8
I00
sS'penalty'
p9
g1
(g2
(S'S2'
I0
I1
tRp10
(I3
S'|'
NNNI2
I1
I0
tbS'l2'
tRp11
sS'tol'
p12
F0.74105743718046369
sS'class_weight'
p13
Nst.(cnumpy.core.multiarray
scalar
p1
(cnumpy
dtype
p2
(S'f8'
I0
I1
tRp3
(I3
S'<'
NNNI-1
I-1
I0
tbS'\xe9\x009\xc3\xe6\xeb\xd3?'
tRp4
g1
(g3
S'\x89\x88\x88\x88\x88CX?'
tRp5
(dp6
S'C'
F0.36574519468096794
sS'dual'
p7
I00
sS'fit_intercept'
p8
I01
sS'penalty'
p9
g1
(g2
(S'S2'
I0
I1
tRp10
(I3
S'|'
NNNI2
I1
I0
tbS'l2'
tRp11
sS'tol'
p12
F0.62790003273296824
sS'class_weight'
p13
S'auto'
p14
st.(cnumpy.core.multiarray
scalar
p1
(cnumpy
dtype
p2
(S'f8'
I0
I1
tRp3
(I3
S'<'
NNNI-1
I-1
I0
tbS' \xc0eo\xe0|\xaf?'
tRp4
g1
(g3
S'DDDD\xc4\xb0]?'
tRp5
(dp6
S'penalty'
p7
g1
(g2
(S'S2'
I0
I1
tRp8
(I3
S'|'
NNNI2
I1
I0
tbS'l1'
tRp9
sS'C'
F0.3046142224767141
sS'fit_intercept'
p10
I01
sS'tol'
p11
F0.54691374336752352
sS'class_weight'
p12
S'auto'
p13
st.