(cnumpy.core.multiarray
scalar
p1
(cnumpy
dtype
p2
(S'f8'
I0
I1
tRp3
(I3
S'<'
NNNI-1
I-1
I0
tbS'~\x0e\xfa\xac\xb0\x0e\xba\xbf'
tRp4
g1
(g3
S'\xcd\xcc\xcc\xcc\xcc\xe7S?'
tRp5
(dp6
S'metric'
p7
g1
(g2
(S'S9'
I0
I1
tRp8
(I3
S'|'
NNNI9
I1
I0
tbS'cityblock'
tRp9
sS'shrink_threshold'
p10
F610.16999420238517
st.(cnumpy.core.multiarray
scalar
p1
(cnumpy
dtype
p2
(S'f8'
I0
I1
tRp3
(I3
S'<'
NNNI-1
I-1
I0
tbS'\xbf\xf6\xcdi\xeeR\xdd?'
tRp4
g1
(g3
S'\xbc\xbb\xbb\xbb\xbb\xd2S?'
tRp5
(dp6
S'metric'
p7
g1
(g2
(S'S9'
I0
I1
tRp8
(I3
S'|'
NNNI9
I1
I0
tbS'manhattan'
tRp9
sS'shrink_threshold'
p10
F0.003921095781703644
st.(cnumpy.core.multiarray
scalar
p1
(cnumpy
dtype
p2
(S'f8'
I0
I1
tRp3
(I3
S'<'
NNNI-1
I-1
I0
tbS'~\x0e\xfa\xac\xb0\x0e\xba\xbf'
tRp4
g1
(g3
S'\x00\x00\x00\x00\x80wS?'
tRp5
(dp6
S'metric'
p7
g1
(g2
(S'S14'
I0
I1
tRp8
(I3
S'|'
NNNI14
I1
I0
tbS'rogerstanimoto'
tRp9
sS'shrink_threshold'
p10
F0.039520473846174006
st.(cnumpy.core.multiarray
scalar
p1
(cnumpy
dtype
p2
(S'f8'
I0
I1
tRp3
(I3
S'<'
NNNI-1
I-1
I0
tbS'\xedm\xb4\xcb\xfd7\xdc?'
tRp4
g1
(g3
S'\xab\xaa\xaa\xaa\xaa\xbbT?'
tRp5
(dp6
S'metric'
p7
g1
(g2
(S'S9'
I0
I1
tRp8
(I3
S'|'
NNNI9
I1
I0
tbS'chebyshev'
tRp9
sS'shrink_threshold'
p10
F0.065496177706481029
st.(cnumpy.core.multiarray
scalar
p1
(cnumpy
dtype
p2
(S'f8'
I0
I1
tRp3
(I3
S'<'
NNNI-1
I-1
I0
tbS'~\x0e\xfa\xac\xb0\x0e\xba\xbf'
tRp4
g1
(g3
S'ffff\xe6\xf8W?'
tRp5
(dp6
S'metric'
p7
g1
(g2
(S'S9'
I0
I1
tRp8
(I3
S'|'
NNNI9
I1
I0
tbS'minkowski'
tRp9
sS'shrink_threshold'
p10
F3.0390885231530524
st.(cnumpy.core.multiarray
scalar
p1
(cnumpy
dtype
p2
(S'f8'
I0
I1
tRp3
(I3
S'<'
NNNI-1
I-1
I0
tbS'~\x0e\xfa\xac\xb0\x0e\xba\xbf'
tRp4
g1
(g3
S'UUUU\xd5[T?'
tRp5
(dp6
S'metric'
p7
g1
(g2
(S'S9'
I0
I1
tRp8
(I3
S'|'
NNNI9
I1
I0
tbS'kulsinski'
tRp9
sS'shrink_threshold'
p10
F0.020489561433523668
st.(cnumpy.core.multiarray
scalar
p1
(cnumpy
dtype
p2
(S'f8'
I0
I1
tRp3
(I3
S'<'
NNNI-1
I-1
I0
tbS'e\x00rf\x7f1\xe3?'
tRp4
g1
(g3
S'wwww\xf78V?'
tRp5
(dp6
S'metric'
p7
g1
(g2
(S'S6'
I0
I1
tRp8
(I3
S'|'
NNNI6
I1
I0
tbS'cosine'
tRp9
sS'shrink_threshold'
p10
F0.0039954674459652438
st.(cnumpy.core.multiarray
scalar
p1
(cnumpy
dtype
p2
(S'f8'
I0
I1
tRp3
(I3
S'<'
NNNI-1
I-1
I0
tbS'~\x0e\xfa\xac\xb0\x0e\xba\xbf'
tRp4
g1
(g3
S'\xde\xdd\xdd\xdd]\x07U?'
tRp5
(dp6
S'metric'
p7
g1
(g2
(S'S7'
I0
I1
tRp8
(I3
S'|'
NNNI7
I1
I0
tbS'jaccard'
tRp9
sS'shrink_threshold'
p10
F0.022654093612905376
st.(cnumpy.core.multiarray
scalar
p1
(cnumpy
dtype
p2
(S'f8'
I0
I1
tRp3
(I3
S'<'
NNNI-1
I-1
I0
tbS"O'\xc7\x15\x06\xd4\xe1?"
tRp4
g1
(g3
S'"""""\xa0\\?'
tRp5
(dp6
S'metric'
p7
g1
(g2
(S'S9'
I0
I1
tRp8
(I3
S'|'
NNNI9
I1
I0
tbS'minkowski'
tRp9
sS'shrink_threshold'
p10
F5.423215678491655e-05
st.(cnumpy.core.multiarray
scalar
p1
(cnumpy
dtype
p2
(S'f8'
I0
I1
tRp3
(I3
S'<'
NNNI-1
I-1
I0
tbS'~\x0e\xfa\xac\xb0\x0e\xba\xbf'
tRp4
g1
(g3
S'\x11\x11\x11\x11\x91\xe9X?'
tRp5
(dp6
S'metric'
p7
g1
(g2
(S'S2'
I0
I1
tRp8
(I3
S'|'
NNNI2
I1
I0
tbS'l2'
tRp9
sS'shrink_threshold'
p10
F762.90154709677984
st.(cnumpy.core.multiarray
scalar
p1
(cnumpy
dtype
p2
(S'f8'
I0
I1
tRp3
(I3
S'<'
NNNI-1
I-1
I0
tbS'~\x0e\xfa\xac\xb0\x0e\xba\xbf'
tRp4
g1
(g3
S'\x9a\x99\x99\x99\x19/U?'
tRp5
(dp6
S'metric'
p7
g1
(g2
(S'S11'
I0
I1
tRp8
(I3
S'|'
NNNI11
I1
I0
tbS'sqeuclidean'
tRp9
sS'shrink_threshold'
p10
F6736.5650638116904
st.(cnumpy.core.multiarray
scalar
p1
(cnumpy
dtype
p2
(S'f8'
I0
I1
tRp3
(I3
S'<'
NNNI-1
I-1
I0
tbS'\xa9\xa5\xf9\x18\xde\x0f\xe3?'
tRp4
g1
(g3
S'UUUU\xd5\x9dU?'
tRp5
(dp6
S'metric'
p7
g1
(g2
(S'S6'
I0
I1
tRp8
(I3
S'|'
NNNI6
I1
I0
tbS'cosine'
tRp9
sS'shrink_threshold'
p10
F0.001649831817875536
st.(cnumpy.core.multiarray
scalar
p1
(cnumpy
dtype
p2
(S'f8'
I0
I1
tRp3
(I3
S'<'
NNNI-1
I-1
I0
tbS'~\x0e\xfa\xac\xb0\x0e\xba\xbf'
tRp4
g1
(g3
S'\xab\xaa\xaa\xaa\xaaiY?'
tRp5
(dp6
S'metric'
p7
g1
(g2
(S'S11'
I0
I1
tRp8
(I3
S'|'
NNNI11
I1
I0
tbS'mahalanobis'
tRp9
sS'shrink_threshold'
p10
F1615.0956602888496
st.(cnumpy.core.multiarray
scalar
p1
(cnumpy
dtype
p2
(S'f8'
I0
I1
tRp3
(I3
S'<'
NNNI-1
I-1
I0
tbS'\x9bE\xfbP\xbe\x15\xdc?'
tRp4
g1
(g3
S'wwwww\xfaT?'
tRp5
(dp6
S'metric'
p7
g1
(g2
(S'S9'
I0
I1
tRp8
(I3
S'|'
NNNI9
I1
I0
tbS'chebyshev'
tRp9
sS'shrink_threshold'
p10
F0.082025271514031411
st.(cnumpy.core.multiarray
scalar
p1
(cnumpy
dtype
p2
(S'f8'
I0
I1
tRp3
(I3
S'<'
NNNI-1
I-1
I0
tbS'd6\xecL#%\xe3?'
tRp4
g1
(g3
S'\x00\x00\x00\x00\x002Y?'
tRp5
(dp6
S'metric'
p7
g1
(g2
(S'S9'
I0
I1
tRp8
(I3
S'|'
NNNI9
I1
I0
tbS'euclidean'
tRp9
sS'shrink_threshold'
p10
F0.064077535280873482
st.(cnumpy.core.multiarray
scalar
p1
(cnumpy
dtype
p2
(S'f8'
I0
I1
tRp3
(I3
S'<'
NNNI-1
I-1
I0
tbS'~\x0e\xfa\xac\xb0\x0e\xba\xbf'
tRp4
g1
(g3
S'\xab\xaa\xaa\xaa\xaaLW?'
tRp5
(dp6
S'metric'
p7
g1
(g2
(S'S4'
I0
I1
tRp8
(I3
S'|'
NNNI4
I1
I0
tbS'yule'
tRp9
sS'shrink_threshold'
p10
F3.7265862726003722
st.(cnumpy.core.multiarray
scalar
p1
(cnumpy
dtype
p2
(S'f8'
I0
I1
tRp3
(I3
S'<'
NNNI-1
I-1
I0
tbS'~\x0e\xfa\xac\xb0\x0e\xba\xbf'
tRp4
g1
(g3
S'\xef\xee\xee\xeen\xc0T?'
tRp5
(dp6
S'metric'
p7
g1
(g2
(S'S7'
I0
I1
tRp8
(I3
S'|'
NNNI7
I1
I0
tbS'jaccard'
tRp9
sS'shrink_threshold'
p10
F19826.616270677041
st.(cnumpy.core.multiarray
scalar
p1
(cnumpy
dtype
p2
(S'f8'
I0
I1
tRp3
(I3
S'<'
NNNI-1
I-1
I0
tbS'~\x0e\xfa\xac\xb0\x0e\xba\xbf'
tRp4
g1
(g3
S'wwww\xf7nV?'
tRp5
(dp6
S'metric'
p7
g1
(g2
(S'S4'
I0
I1
tRp8
(I3
S'|'
NNNI4
I1
I0
tbS'dice'
tRp9
sS'shrink_threshold'
p10
F0.00022696410422696375
st.(cnumpy.core.multiarray
scalar
p1
(cnumpy
dtype
p2
(S'f8'
I0
I1
tRp3
(I3
S'<'
NNNI-1
I-1
I0
tbS'~\x0e\xfa\xac\xb0\x0e\xba\xbf'
tRp4
g1
(g3
S'UUUUUPU?'
tRp5
(dp6
S'metric'
p7
g1
(g2
(S'S7'
I0
I1
tRp8
(I3
S'|'
NNNI7
I1
I0
tbS'jaccard'
tRp9
sS'shrink_threshold'
p10
F1.8140487364552569
st.(cnumpy.core.multiarray
scalar
p1
(cnumpy
dtype
p2
(S'f8'
I0
I1
tRp3
(I3
S'<'
NNNI-1
I-1
I0
tbS'~\x0e\xfa\xac\xb0\x0e\xba\xbf'
tRp4
g1
(g3
S'\x00\x00\x00\x00\x80\x9eU?'
tRp5
(dp6
S'metric'
p7
g1
(g2
(S'S6'
I0
I1
tRp8
(I3
S'|'
NNNI6
I1
I0
tbS'cosine'
tRp9
sS'shrink_threshold'
p10
F1.6673692376306057
st.(cnumpy.core.multiarray
scalar
p1
(cnumpy
dtype
p2
(S'f8'
I0
I1
tRp3
(I3
S'<'
NNNI-1
I-1
I0
tbS'~\x0e\xfa\xac\xb0\x0e\xba\xbf'
tRp4
g1
(g3
S'\xcd\xcc\xcc\xccL\xbaT?'
tRp5
(dp6
S'metric'
p7
g1
(g2
(S'S9'
I0
I1
tRp8
(I3
S'|'
NNNI9
I1
I0
tbS'chebyshev'
tRp9
sS'shrink_threshold'
p10
F1.1753740196365092
st.(cnumpy.core.multiarray
scalar
p1
(cnumpy
dtype
p2
(S'f8'
I0
I1
tRp3
(I3
S'<'
NNNI-1
I-1
I0
tbS'~\x0e\xfa\xac\xb0\x0e\xba\xbf'
tRp4
g1
(g3
S'ffff\xe6,U?'
tRp5
(dp6
S'metric'
p7
g1
(g2
(S'S7'
I0
I1
tRp8
(I3
S'|'
NNNI7
I1
I0
tbS'jaccard'
tRp9
sS'shrink_threshold'
p10
F0.00014890572227164387
st.(cnumpy.core.multiarray
scalar
p1
(cnumpy
dtype
p2
(S'f8'
I0
I1
tRp3
(I3
S'<'
NNNI-1
I-1
I0
tbS'~\x0e\xfa\xac\xb0\x0e\xba\xbf'
tRp4
g1
(g3
S'"""""\nU?'
tRp5
(dp6
S'metric'
p7
g1
(g2
(S'S10'
I0
I1
tRp8
(I3
S'|'
NNNI10
I1
I0
tbS'braycurtis'
tRp9
sS'shrink_threshold'
p10
F9.5594856202873686
st.(cnumpy.core.multiarray
scalar
p1
(cnumpy
dtype
p2
(S'f8'
I0
I1
tRp3
(I3
S'<'
NNNI-1
I-1
I0
tbS'\xc6s($>>\xda?'
tRp4
g1
(g3
S'\x9a\x99\x99\x99\x99\xc5T?'
tRp5
(dp6
S'metric'
p7
g1
(g2
(S'S8'
I0
I1
tRp8
(I3
S'|'
NNNI8
I1
I0
tbS'canberra'
tRp9
sS'shrink_threshold'
p10
F0.00013593352877272643
st.(cnumpy.core.multiarray
scalar
p1
(cnumpy
dtype
p2
(S'f8'
I0
I1
tRp3
(I3
S'<'
NNNI-1
I-1
I0
tbS'~\x0e\xfa\xac\xb0\x0e\xba\xbf'
tRp4
g1
(g3
S'"""""1U?'
tRp5
(dp6
S'metric'
p7
g1
(g2
(S'S11'
I0
I1
tRp8
(I3
S'|'
NNNI11
I1
I0
tbS'sokalsneath'
tRp9
sS'shrink_threshold'
p10
F130.87471695647318
st.(cnumpy.core.multiarray
scalar
p1
(cnumpy
dtype
p2
(S'f8'
I0
I1
tRp3
(I3
S'<'
NNNI-1
I-1
I0
tbS'~\x0e\xfa\xac\xb0\x0e\xba\xbf'
tRp4
g1
(g3
S'\x89\x88\x88\x88\x88\xf4X?'
tRp5
(dp6
S'metric'
p7
g1
(g2
(S'S11'
I0
I1
tRp8
(I3
S'|'
NNNI11
I1
I0
tbS'mahalanobis'
tRp9
sS'shrink_threshold'
p10
F11264.833069988772
st.(cnumpy.core.multiarray
scalar
p1
(cnumpy
dtype
p2
(S'f8'
I0
I1
tRp3
(I3
S'<'
NNNI-1
I-1
I0
tbS':\x99%\x03\x0eR\xe2?'
tRp4
g1
(g3
S'UUUUU\xd0Z?'
tRp5
(dp6
S'metric'
p7
g1
(g2
(S'S9'
I0
I1
tRp8
(I3
S'|'
NNNI9
I1
I0
tbS'minkowski'
tRp9
sS'shrink_threshold'
p10
F0.025177449037460584
st.(cnumpy.core.multiarray
scalar
p1
(cnumpy
dtype
p2
(S'f8'
I0
I1
tRp3
(I3
S'<'
NNNI-1
I-1
I0
tbS'\x7f\x82=\xa4\xd5G\xe2?'
tRp4
g1
(g3
S'UUUU\xd5\x06Y?'
tRp5
(dp6
S'metric'
p7
g1
(g2
(S'S9'
I0
I1
tRp8
(I3
S'|'
NNNI9
I1
I0
tbS'minkowski'
tRp9
sS'shrink_threshold'
p10
F0.02091105387449585
st.(cnumpy.core.multiarray
scalar
p1
(cnumpy
dtype
p2
(S'f8'
I0
I1
tRp3
(I3
S'<'
NNNI-1
I-1
I0
tbS'~\x0e\xfa\xac\xb0\x0e\xba\xbf'
tRp4
g1
(g3
S'\xef\xee\xee\xee\xee\xf1W?'
tRp5
(dp6
S'metric'
p7
g1
(g2
(S'S9'
I0
I1
tRp8
(I3
S'|'
NNNI9
I1
I0
tbS'manhattan'
tRp9
sS'shrink_threshold'
p10
F8034.0899264476921
st.(cnumpy.core.multiarray
scalar
p1
(cnumpy
dtype
p2
(S'f8'
I0
I1
tRp3
(I3
S'<'
NNNI-1
I-1
I0
tbS'\xc6\x87\x1f^\xc6\xf9\xe1?'
tRp4
g1
(g3
S'\x11\x11\x11\x11\x91.X?'
tRp5
(dp6
S'metric'
p7
g1
(g2
(S'S9'
I0
I1
tRp8
(I3
S'|'
NNNI9
I1
I0
tbS'euclidean'
tRp9
sS'shrink_threshold'
p10
F0.0065468143044936922
st.(cnumpy.core.multiarray
scalar
p1
(cnumpy
dtype
p2
(S'f8'
I0
I1
tRp3
(I3
S'<'
NNNI-1
I-1
I0
tbS'~\x0e\xfa\xac\xb0\x0e\xba\xbf'
tRp4
g1
(g3
S'\xef\xee\xee\xee\xee\x0fU?'
tRp5
(dp6
S'metric'
p7
g1
(g2
(S'S11'
I0
I1
tRp8
(I3
S'|'
NNNI11
I1
I0
tbS'sokalsneath'
tRp9
sS'shrink_threshold'
p10
F1.4626203963376669
st.(cnumpy.core.multiarray
scalar
p1
(cnumpy
dtype
p2
(S'f8'
I0
I1
tRp3
(I3
S'<'
NNNI-1
I-1
I0
tbS'~\x0e\xfa\xac\xb0\x0e\xba\xbf'
tRp4
g1
(g3
S'\xcd\xcc\xcc\xccL\xc0T?'
tRp5
(dp6
S'metric'
p7
g1
(g2
(S'S11'
I0
I1
tRp8
(I3
S'|'
NNNI11
I1
I0
tbS'sokalsneath'
tRp9
sS'shrink_threshold'
p10
F1224.3161150930546
st.(cnumpy.core.multiarray
scalar
p1
(cnumpy
dtype
p2
(S'f8'
I0
I1
tRp3
(I3
S'<'
NNNI-1
I-1
I0
tbS'~\x0e\xfa\xac\xb0\x0e\xba\xbf'
tRp4
g1
(g3
S'\xde\xdd\xdd\xdd\xdd\xe1T?'
tRp5
(dp6
S'metric'
p7
g1
(g2
(S'S4'
I0
I1
tRp8
(I3
S'|'
NNNI4
I1
I0
tbS'dice'
tRp9
sS'shrink_threshold'
p10
F2.8222141006814061
st.(cnumpy.core.multiarray
scalar
p1
(cnumpy
dtype
p2
(S'f8'
I0
I1
tRp3
(I3
S'<'
NNNI-1
I-1
I0
tbS'~\x0e\xfa\xac\xb0\x0e\xba\xbf'
tRp4
g1
(g3
S'\xef\xee\xee\xeen\xbdX?'
tRp5
(dp6
S'metric'
p7
g1
(g2
(S'S2'
I0
I1
tRp8
(I3
S'|'
NNNI2
I1
I0
tbS'l2'
tRp9
sS'shrink_threshold'
p10
F732.60471430441271
st.(cnumpy.core.multiarray
scalar
p1
(cnumpy
dtype
p2
(S'f8'
I0
I1
tRp3
(I3
S'<'
NNNI-1
I-1
I0
tbS'~\x0e\xfa\xac\xb0\x0e\xba\xbf'
tRp4
g1
(g3
S'wwww\xf7\x02Z?'
tRp5
(dp6
S'metric'
p7
g1
(g2
(S'S9'
I0
I1
tRp8
(I3
S'|'
NNNI9
I1
I0
tbS'minkowski'
tRp9
sS'shrink_threshold'
p10
F16.068934352576548
st.(cnumpy.core.multiarray
scalar
p1
(cnumpy
dtype
p2
(S'f8'
I0
I1
tRp3
(I3
S'<'
NNNI-1
I-1
I0
tbS'~\x0e\xfa\xac\xb0\x0e\xba\xbf'
tRp4
g1
(g3
S'\xbc\xbb\xbb\xbb;+\\?'
tRp5
(dp6
S'metric'
p7
g1
(g2
(S'S9'
I0
I1
tRp8
(I3
S'|'
NNNI9
I1
I0
tbS'cityblock'
tRp9
sS'shrink_threshold'
p10
F513.45063612136437
st.(cnumpy.core.multiarray
scalar
p1
(cnumpy
dtype
p2
(S'f8'
I0
I1
tRp3
(I3
S'<'
NNNI-1
I-1
I0
tbS'~\x0e\xfa\xac\xb0\x0e\xba\xbf'
tRp4
g1
(g3
S'\x89\x88\x88\x88\x88\xcf[?'
tRp5
(dp6
S'metric'
p7
g1
(g2
(S'S11'
I0
I1
tRp8
(I3
S'|'
NNNI11
I1
I0
tbS'correlation'
tRp9
sS'shrink_threshold'
p10
F15.321019348849957
st.(cnumpy.core.multiarray
scalar
p1
(cnumpy
dtype
p2
(S'f8'
I0
I1
tRp3
(I3
S'<'
NNNI-1
I-1
I0
tbS'~\x0e\xfa\xac\xb0\x0e\xba\xbf'
tRp4
g1
(g3
S'fffff\x00V?'
tRp5
(dp6
S'metric'
p7
g1
(g2
(S'S7'
I0
I1
tRp8
(I3
S'|'
NNNI7
I1
I0
tbS'hamming'
tRp9
sS'shrink_threshold'
p10
F0.059065127137424449
st.(cnumpy.core.multiarray
scalar
p1
(cnumpy
dtype
p2
(S'f8'
I0
I1
tRp3
(I3
S'<'
NNNI-1
I-1
I0
tbS'~\x0e\xfa\xac\xb0\x0e\xba\xbf'
tRp4
g1
(g3
S'\xbc\xbb\xbb\xbb\xbb\xdcT?'
tRp5
(dp6
S'metric'
p7
g1
(g2
(S'S4'
I0
I1
tRp8
(I3
S'|'
NNNI4
I1
I0
tbS'dice'
tRp9
sS'shrink_threshold'
p10
F1.9538769322584695
st.(cnumpy.core.multiarray
scalar
p1
(cnumpy
dtype
p2
(S'f8'
I0
I1
tRp3
(I3
S'<'
NNNI-1
I-1
I0
tbS'~\x0e\xfa\xac\xb0\x0e\xba\xbf'
tRp4
g1
(g3
S'fffffrU?'
tRp5
(dp6
S'metric'
p7
g1
(g2
(S'S9'
I0
I1
tRp8
(I3
S'|'
NNNI9
I1
I0
tbS'kulsinski'
tRp9
sS'shrink_threshold'
p10
F984.82673883130224
st.(cnumpy.core.multiarray
scalar
p1
(cnumpy
dtype
p2
(S'f8'
I0
I1
tRp3
(I3
S'<'
NNNI-1
I-1
I0
tbS'~\x0e\xfa\xac\xb0\x0e\xba\xbf'
tRp4
g1
(g3
S'UUUUUiU?'
tRp5
(dp6
S'metric'
p7
g1
(g2
(S'S7'
I0
I1
tRp8
(I3
S'|'
NNNI7
I1
I0
tbS'jaccard'
tRp9
sS'shrink_threshold'
p10
F1.8745220161356508
st.