(lp1
(dp2
S'metric'
p3
cnumpy.core.multiarray
scalar
p4
(cnumpy
dtype
p5
(S'S9'
I0
I1
tRp6
(I3
S'|'
NNNI9
I1
I0
tbS'chebyshev'
tRp7
sS'shrink_threshold'
p8
F0.065496177706481029
sa(dp9
S'metric'
p10
g4
(g5
(S'S9'
I0
I1
tRp11
(I3
S'|'
NNNI9
I1
I0
tbS'chebyshev'
tRp12
sS'shrink_threshold'
p13
F0.082025271514031411
sa(dp14
S'metric'
p15
g4
(g5
(S'S9'
I0
I1
tRp16
(I3
S'|'
NNNI9
I1
I0
tbS'chebyshev'
tRp17
sS'shrink_threshold'
p18
F1.1753740196365092
sa(dp19
S'metric'
p20
g4
(g5
(S'S4'
I0
I1
tRp21
(I3
S'|'
NNNI4
I1
I0
tbS'yule'
tRp22
sS'shrink_threshold'
p23
F3.7265862726003722
sa(dp24
S'metric'
p25
g4
(g5
(S'S8'
I0
I1
tRp26
(I3
S'|'
NNNI8
I1
I0
tbS'canberra'
tRp27
sS'shrink_threshold'
p28
F0.00013593352877272643
sa(dp29
S'metric'
p30
g4
(g5
(S'S14'
I0
I1
tRp31
(I3
S'|'
NNNI14
I1
I0
tbS'rogerstanimoto'
tRp32
sS'shrink_threshold'
p33
F0.039520473846174006
sa(dp34
S'metric'
p35
g4
(g5
(S'S4'
I0
I1
tRp36
(I3
S'|'
NNNI4
I1
I0
tbS'dice'
tRp37
sS'shrink_threshold'
p38
F0.00022696410422696375
sa(dp39
S'metric'
p40
g4
(g5
(S'S4'
I0
I1
tRp41
(I3
S'|'
NNNI4
I1
I0
tbS'dice'
tRp42
sS'shrink_threshold'
p43
F2.8222141006814061
sa(dp44
S'metric'
p45
g4
(g5
(S'S4'
I0
I1
tRp46
(I3
S'|'
NNNI4
I1
I0
tbS'dice'
tRp47
sS'shrink_threshold'
p48
F1.9538769322584695
sa(dp49
S'metric'
p50
g4
(g5
(S'S10'
I0
I1
tRp51
(I3
S'|'
NNNI10
I1
I0
tbS'braycurtis'
tRp52
sS'shrink_threshold'
p53
F9.5594856202873686
sa(dp54
S'metric'
p55
g4
(g5
(S'S6'
I0
I1
tRp56
(I3
S'|'
NNNI6
I1
I0
tbS'cosine'
tRp57
sS'shrink_threshold'
p58
F0.0039954674459652438
sa(dp59
S'metric'
p60
g4
(g5
(S'S6'
I0
I1
tRp61
(I3
S'|'
NNNI6
I1
I0
tbS'cosine'
tRp62
sS'shrink_threshold'
p63
F0.001649831817875536
sa(dp64
S'metric'
p65
g4
(g5
(S'S6'
I0
I1
tRp66
(I3
S'|'
NNNI6
I1
I0
tbS'cosine'
tRp67
sS'shrink_threshold'
p68
F1.6673692376306057
sa(dp69
S'metric'
p70
g4
(g5
(S'S9'
I0
I1
tRp71
(I3
S'|'
NNNI9
I1
I0
tbS'cityblock'
tRp72
sS'shrink_threshold'
p73
F610.16999420238517
sa(dp74
S'metric'
p75
g4
(g5
(S'S9'
I0
I1
tRp76
(I3
S'|'
NNNI9
I1
I0
tbS'cityblock'
tRp77
sS'shrink_threshold'
p78
F513.45063612136437
sa(dp79
S'metric'
p80
g4
(g5
(S'S9'
I0
I1
tRp81
(I3
S'|'
NNNI9
I1
I0
tbS'manhattan'
tRp82
sS'shrink_threshold'
p83
F0.003921095781703644
sa(dp84
S'metric'
p85
g4
(g5
(S'S9'
I0
I1
tRp86
(I3
S'|'
NNNI9
I1
I0
tbS'manhattan'
tRp87
sS'shrink_threshold'
p88
F8034.0899264476921
sa(dp89
S'metric'
p90
g4
(g5
(S'S11'
I0
I1
tRp91
(I3
S'|'
NNNI11
I1
I0
tbS'sqeuclidean'
tRp92
sS'shrink_threshold'
p93
F6736.5650638116904
sa(dp94
S'metric'
p95
g4
(g5
(S'S7'
I0
I1
tRp96
(I3
S'|'
NNNI7
I1
I0
tbS'jaccard'
tRp97
sS'shrink_threshold'
p98
F0.022654093612905376
sa(dp99
S'metric'
p100
g4
(g5
(S'S7'
I0
I1
tRp101
(I3
S'|'
NNNI7
I1
I0
tbS'jaccard'
tRp102
sS'shrink_threshold'
p103
F19826.616270677041
sa(dp104
S'metric'
p105
g4
(g5
(S'S7'
I0
I1
tRp106
(I3
S'|'
NNNI7
I1
I0
tbS'jaccard'
tRp107
sS'shrink_threshold'
p108
F1.8140487364552569
sa(dp109
S'metric'
p110
g4
(g5
(S'S7'
I0
I1
tRp111
(I3
S'|'
NNNI7
I1
I0
tbS'jaccard'
tRp112
sS'shrink_threshold'
p113
F0.00014890572227164387
sa(dp114
S'metric'
p115
g4
(g5
(S'S7'
I0
I1
tRp116
(I3
S'|'
NNNI7
I1
I0
tbS'jaccard'
tRp117
sS'shrink_threshold'
p118
F1.8745220161356508
sa(dp119
S'metric'
p120
g4
(g5
(S'S11'
I0
I1
tRp121
(I3
S'|'
NNNI11
I1
I0
tbS'sokalsneath'
tRp122
sS'shrink_threshold'
p123
F130.87471695647318
sa(dp124
S'metric'
p125
g4
(g5
(S'S11'
I0
I1
tRp126
(I3
S'|'
NNNI11
I1
I0
tbS'sokalsneath'
tRp127
sS'shrink_threshold'
p128
F1.4626203963376669
sa(dp129
S'metric'
p130
g4
(g5
(S'S11'
I0
I1
tRp131
(I3
S'|'
NNNI11
I1
I0
tbS'sokalsneath'
tRp132
sS'shrink_threshold'
p133
F1224.3161150930546
sa(dp134
S'metric'
p135
g4
(g5
(S'S9'
I0
I1
tRp136
(I3
S'|'
NNNI9
I1
I0
tbS'kulsinski'
tRp137
sS'shrink_threshold'
p138
F0.020489561433523668
sa(dp139
S'metric'
p140
g4
(g5
(S'S9'
I0
I1
tRp141
(I3
S'|'
NNNI9
I1
I0
tbS'kulsinski'
tRp142
sS'shrink_threshold'
p143
F984.82673883130224
sa(dp144
S'metric'
p145
g4
(g5
(S'S9'
I0
I1
tRp146
(I3
S'|'
NNNI9
I1
I0
tbS'minkowski'
tRp147
sS'shrink_threshold'
p148
F3.0390885231530524
sa(dp149
S'metric'
p150
g4
(g5
(S'S9'
I0
I1
tRp151
(I3
S'|'
NNNI9
I1
I0
tbS'minkowski'
tRp152
sS'shrink_threshold'
p153
F5.423215678491655e-05
sa(dp154
S'metric'
p155
g4
(g5
(S'S9'
I0
I1
tRp156
(I3
S'|'
NNNI9
I1
I0
tbS'minkowski'
tRp157
sS'shrink_threshold'
p158
F0.025177449037460584
sa(dp159
S'metric'
p160
g4
(g5
(S'S9'
I0
I1
tRp161
(I3
S'|'
NNNI9
I1
I0
tbS'minkowski'
tRp162
sS'shrink_threshold'
p163
F0.02091105387449585
sa(dp164
S'metric'
p165
g4
(g5
(S'S9'
I0
I1
tRp166
(I3
S'|'
NNNI9
I1
I0
tbS'minkowski'
tRp167
sS'shrink_threshold'
p168
F16.068934352576548
sa(dp169
S'metric'
p170
g4
(g5
(S'S11'
I0
I1
tRp171
(I3
S'|'
NNNI11
I1
I0
tbS'mahalanobis'
tRp172
sS'shrink_threshold'
p173
F1615.0956602888496
sa(dp174
S'metric'
p175
g4
(g5
(S'S11'
I0
I1
tRp176
(I3
S'|'
NNNI11
I1
I0
tbS'mahalanobis'
tRp177
sS'shrink_threshold'
p178
F11264.833069988772
sa(dp179
S'metric'
p180
g4
(g5
(S'S9'
I0
I1
tRp181
(I3
S'|'
NNNI9
I1
I0
tbS'euclidean'
tRp182
sS'shrink_threshold'
p183
F0.064077535280873482
sa(dp184
S'metric'
p185
g4
(g5
(S'S9'
I0
I1
tRp186
(I3
S'|'
NNNI9
I1
I0
tbS'euclidean'
tRp187
sS'shrink_threshold'
p188
F0.0065468143044936922
sa(dp189
S'metric'
p190
g4
(g5
(S'S2'
I0
I1
tRp191
(I3
S'|'
NNNI2
I1
I0
tbS'l2'
tRp192
sS'shrink_threshold'
p193
F762.90154709677984
sa(dp194
S'metric'
p195
g4
(g5
(S'S2'
I0
I1
tRp196
(I3
S'|'
NNNI2
I1
I0
tbS'l2'
tRp197
sS'shrink_threshold'
p198
F732.60471430441271
sa(dp199
S'metric'
p200
g4
(g5
(S'S7'
I0
I1
tRp201
(I3
S'|'
NNNI7
I1
I0
tbS'hamming'
tRp202
sS'shrink_threshold'
p203
F0.059065127137424449
sa(dp204
S'metric'
p205
g4
(g5
(S'S11'
I0
I1
tRp206
(I3
S'|'
NNNI11
I1
I0
tbS'correlation'
tRp207
sS'shrink_threshold'
p208
F15.321019348849957
sa.