(cnumpy.core.multiarray
scalar
p1
(cnumpy
dtype
p2
(S'f8'
I0
I1
tRp3
(I3
S'<'
NNNI-1
I-1
I0
tbS'\xa3\xdf<\xe1\x04\x1cp\xbf'
tRp4
g1
(g3
S'\x9a\x99\x99\x99\xa9\x9d\x80?'
tRp5
(dp6
S'kernel'
p7
g1
(g2
(S'S6'
I0
I1
tRp8
(I3
S'|'
NNNI6
I1
I0
tbS'linear'
tRp9
sS'shrinking'
p10
I01
sS'nu'
p11
F0.0088881736581991611
sS'tol'
p12
F0.0033406897833337824
st.(cnumpy.core.multiarray
scalar
p1
(cnumpy
dtype
p2
(S'f8'
I0
I1
tRp3
(I3
S'<'
NNNI-1
I-1
I0
tbS':n\xd6\x1aB(\xe7?'
tRp4
g1
(g3
S'\xef\xee\xee\xeeaQ\xc3?'
tRp5
(dp6
S'kernel'
p7
g1
(g2
(S'S4'
I0
I1
tRp8
(I3
S'|'
NNNI4
I1
I0
tbS'poly'
tRp9
sS'degree'
p10
I4
sS'coef0'
p11
F0.24188947292393781
sS'tol'
p12
F0.0028359066021274157
sS'shrinking'
p13
I00
sS'nu'
p14
F0.12034163420832056
sS'gamma'
p15
F0.13418184201906724
st.(cnumpy.core.multiarray
scalar
p1
(cnumpy
dtype
p2
(S'f8'
I0
I1
tRp3
(I3
S'<'
NNNI-1
I-1
I0
tbS'\xf5\xbca\x04\xabw\xe8?'
tRp4
g1
(g3
S'\x00\x00\x00\x00\xd4\x93\xad?'
tRp5
(dp6
S'kernel'
p7
g1
(g2
(S'S4'
I0
I1
tRp8
(I3
S'|'
NNNI4
I1
I0
tbS'poly'
tRp9
sS'degree'
p10
I2
sS'coef0'
p11
F0.26225840948843648
sS'tol'
p12
F0.0076715276811071369
sS'shrinking'
p13
I01
sS'nu'
p14
F0.16766075320181917
sS'gamma'
p15
F0.88172193190260661
st.(cnumpy.core.multiarray
scalar
p1
(cnumpy
dtype
p2
(S'f8'
I0
I1
tRp3
(I3
S'<'
NNNI-1
I-1
I0
tbS'\x10\xd0\xe2\xf8\xf7\x08\xbc\xbf'
tRp4
g1
(g3
S'UUUU\xdd\x07\xae?'
tRp5
(dp6
S'kernel'
p7
g1
(g2
(S'S7'
I0
I1
tRp8
(I3
S'|'
NNNI7
I1
I0
tbS'sigmoid'
tRp9
sS'coef0'
p10
F0.57604021475332245
sS'tol'
p11
F0.0064922377719166587
sS'shrinking'
p12
I01
sS'nu'
p13
F0.035143240260561481
sS'gamma'
p14
F0.68139530095810397
st.(cnumpy.core.multiarray
scalar
p1
(cnumpy
dtype
p2
(S'f8'
I0
I1
tRp3
(I3
S'<'
NNNI-1
I-1
I0
tbS'\x9d\x91\x11\xc6\x9e\x1a\xe2?'
tRp4
g1
(g3
S'\xab\xaa\xaa\xaa\x82[\x9e?'
tRp5
(dp6
S'kernel'
p7
g1
(g2
(S'S3'
I0
I1
tRp8
(I3
S'|'
NNNI3
I1
I0
tbS'rbf'
tRp9
sS'tol'
p10
F0.0078930932586488926
sS'shrinking'
p11
I00
sS'nu'
p12
F0.0040059817755178084
sS'gamma'
p13
F0.58720544019134258
st.(cnumpy.core.multiarray
scalar
p1
(cnumpy
dtype
p2
(S'f8'
I0
I1
tRp3
(I3
S'<'
NNNI-1
I-1
I0
tbS'\x99"\x08\xca\x1e\xe1\xe4?'
tRp4
g1
(g3
S'""""Z\xcf\x93?'
tRp5
(dp6
S'kernel'
p7
g1
(g2
(S'S6'
I0
I1
tRp8
(I3
S'|'
NNNI6
I1
I0
tbS'linear'
tRp9
sS'shrinking'
p10
I00
sS'nu'
p11
F0.13625132903831561
sS'tol'
p12
F0.0017885562587158534
st.(cnumpy.core.multiarray
scalar
p1
(cnumpy
dtype
p2
(S'f8'
I0
I1
tRp3
(I3
S'<'
NNNI-1
I-1
I0
tbS'kX\xbf\x84\xb0^\xe8?'
tRp4
g1
(g3
S'\xef\xee\xee\xee\xa2\xc1\xa1?'
tRp5
(dp6
S'kernel'
p7
g1
(g2
(S'S4'
I0
I1
tRp8
(I3
S'|'
NNNI4
I1
I0
tbS'poly'
tRp9
sS'degree'
p10
I2
sS'coef0'
p11
F0.65403252879920959
sS'tol'
p12
F0.010021405498177682
sS'shrinking'
p13
I01
sS'nu'
p14
F0.16263155345485047
sS'gamma'
p15
F0.5009569585698278
st.(cnumpy.core.multiarray
scalar
p1
(cnumpy
dtype
p2
(S'f8'
I0
I1
tRp3
(I3
S'<'
NNNI-1
I-1
I0
tbS'D.\xd2h\xf8U\xbc\xbf'
tRp4
g1
(g3
S'DDDD\xfe\xae\xb1?'
tRp5
(dp6
S'kernel'
p7
g1
(g2
(S'S7'
I0
I1
tRp8
(I3
S'|'
NNNI7
I1
I0
tbS'sigmoid'
tRp9
sS'coef0'
p10
F0.045467680000158994
sS'tol'
p11
F0.0055080245146101863
sS'shrinking'
p12
I00
sS'nu'
p13
F0.15525960604289935
sS'gamma'
p14
F0.85212576070112844
st.(cnumpy.core.multiarray
scalar
p1
(cnumpy
dtype
p2
(S'f8'
I0
I1
tRp3
(I3
S'<'
NNNI-1
I-1
I0
tbS'\xda\x9cg5\x8bH\xe1?'
tRp4
g1
(g3
S'\x89\x88\x88\x88\x08\x87\x8f?'
tRp5
(dp6
S'kernel'
p7
g1
(g2
(S'S6'
I0
I1
tRp8
(I3
S'|'
NNNI6
I1
I0
tbS'linear'
tRp9
sS'shrinking'
p10
I00
sS'nu'
p11
F0.10054485820887182
sS'tol'
p12
F0.0075088760761919237
st.(cnumpy.core.multiarray
scalar
p1
(cnumpy
dtype
p2
(S'f8'
I0
I1
tRp3
(I3
S'<'
NNNI-1
I-1
I0
tbS'<\xa3\xc1\x9c\xce]\xe0?'
tRp4
g1
(g3
S'\x11\x11\x11\x11A$\x92?'
tRp5
(dp6
S'kernel'
p7
g1
(g2
(S'S6'
I0
I1
tRp8
(I3
S'|'
NNNI6
I1
I0
tbS'linear'
tRp9
sS'shrinking'
p10
I00
sS'nu'
p11
F0.075848662597937655
sS'tol'
p12
F0.0055250393886603459
st.(cnumpy.core.multiarray
scalar
p1
(cnumpy
dtype
p2
(S'f8'
I0
I1
tRp3
(I3
S'<'
NNNI-1
I-1
I0
tbS'qc\xa7]\xe7m\xe6?'
tRp4
g1
(g3
S'""""\xda5\x94?'
tRp5
(dp6
S'kernel'
p7
g1
(g2
(S'S3'
I0
I1
tRp8
(I3
S'|'
NNNI3
I1
I0
tbS'rbf'
tRp9
sS'tol'
p10
F0.012654080135717791
sS'shrinking'
p11
I00
sS'nu'
p12
F0.031637918320897129
sS'gamma'
p13
F0.15727578430002176
st.(cnumpy.core.multiarray
scalar
p1
(cnumpy
dtype
p2
(S'f8'
I0
I1
tRp3
(I3
S'<'
NNNI-1
I-1
I0
tbS'&\xf3\xd7\xb1k\xca\xce?'
tRp4
g1
(g3
S'wwww\xf7@\x89?'
tRp5
(dp6
S'kernel'
p7
g1
(g2
(S'S6'
I0
I1
tRp8
(I3
S'|'
NNNI6
I1
I0
tbS'linear'
tRp9
sS'shrinking'
p10
I00
sS'nu'
p11
F0.049010364632904757
sS'tol'
p12
F0.0058458392689673868
st.(cnumpy.core.multiarray
scalar
p1
(cnumpy
dtype
p2
(S'f8'
I0
I1
tRp3
(I3
S'<'
NNNI-1
I-1
I0
tbS'\x87iP\x9db/\xe0?'
tRp4
g1
(g3
S'\xef\xee\xee\xee\xee\xf9\x8f?'
tRp5
(dp6
S'kernel'
p7
g1
(g2
(S'S6'
I0
I1
tRp8
(I3
S'|'
NNNI6
I1
I0
tbS'linear'
tRp9
sS'shrinking'
p10
I00
sS'nu'
p11
F0.093724026499768409
sS'tol'
p12
F0.012470060714736716
st.(cnumpy.core.multiarray
scalar
p1
(cnumpy
dtype
p2
(S'f8'
I0
I1
tRp3
(I3
S'<'
NNNI-1
I-1
I0
tbS'!R\xc9\xc1\r\x8a\xa9?'
tRp4
g1
(g3
S'\xab\xaa\xaa\xaa\n*\x8b?'
tRp5
(dp6
S'kernel'
p7
g1
(g2
(S'S6'
I0
I1
tRp8
(I3
S'|'
NNNI6
I1
I0
tbS'linear'
tRp9
sS'shrinking'
p10
I01
sS'nu'
p11
F0.025235457009028517
sS'tol'
p12
F0.0059739851522742785
st.(cnumpy.core.multiarray
scalar
p1
(cnumpy
dtype
p2
(S'f8'
I0
I1
tRp3
(I3
S'<'
NNNI-1
I-1
I0
tbS'\xd0[\xb6j\xe0\xe8\xe5?'
tRp4
g1
(g3
S'\xde\xdd\xdd\xdd/\x00\xca?'
tRp5
(dp6
S'kernel'
p7
g1
(g2
(S'S4'
I0
I1
tRp8
(I3
S'|'
NNNI4
I1
I0
tbS'poly'
tRp9
sS'degree'
p10
I5
sS'coef0'
p11
F0.91442680474053617
sS'tol'
p12
F0.0070879620658519269
sS'shrinking'
p13
I01
sS'nu'
p14
F0.094297348132876269
sS'gamma'
p15
F0.875342995424092
st.(cnumpy.core.multiarray
scalar
p1
(cnumpy
dtype
p2
(S'f8'
I0
I1
tRp3
(I3
S'<'
NNNI-1
I-1
I0
tbS'G}\x18\xf9\x13)\xe2?'
tRp4
g1
(g3
S'\xbc\xbb\xbb\xbbO$\xb1?'
tRp5
(dp6
S'kernel'
p7
g1
(g2
(S'S3'
I0
I1
tRp8
(I3
S'|'
NNNI3
I1
I0
tbS'rbf'
tRp9
sS'tol'
p10
F0.0065794625542732379
sS'shrinking'
p11
I00
sS'nu'
p12
F0.039878611230300898
sS'gamma'
p13
F0.91964469519170411
st.(cnumpy.core.multiarray
scalar
p1
(cnumpy
dtype
p2
(S'f8'
I0
I1
tRp3
(I3
S'<'
NNNI-1
I-1
I0
tbS'S9\x1dF\x12\x94\xe8?'
tRp4
g1
(g3
S'\xbc\xbb\xbb\xbb\xcb[\x9d?'
tRp5
(dp6
S'kernel'
p7
g1
(g2
(S'S3'
I0
I1
tRp8
(I3
S'|'
NNNI3
I1
I0
tbS'rbf'
tRp9
sS'tol'
p10
F0.0098537424488146196
sS'shrinking'
p11
I00
sS'nu'
p12
F0.1480338895220823
sS'gamma'
p13
F0.033911902338503053
st.(cnumpy.core.multiarray
scalar
p1
(cnumpy
dtype
p2
(S'f8'
I0
I1
tRp3
(I3
S'<'
NNNI-1
I-1
I0
tbS'\xb4\xbf\xb2\xf6\x16`\xe2?'
tRp4
g1
(g3
S'\x00\x00\x00\x00\xd0\xbb\xaf?'
tRp5
(dp6
S'kernel'
p7
g1
(g2
(S'S3'
I0
I1
tRp8
(I3
S'|'
NNNI3
I1
I0
tbS'rbf'
tRp9
sS'tol'
p10
F0.0043006502862995583
sS'shrinking'
p11
I00
sS'nu'
p12
F0.15790744396649847
sS'gamma'
p13
F0.89631074627231277
st.(cnumpy.core.multiarray
scalar
p1
(cnumpy
dtype
p2
(S'f8'
I0
I1
tRp3
(I3
S'<'
NNNI-1
I-1
I0
tbS'\xeb\xefW\xabP"\xe3?'
tRp4
g1
(g3
S'UUUU5\x15\x91?'
tRp5
(dp6
S'kernel'
p7
g1
(g2
(S'S6'
I0
I1
tRp8
(I3
S'|'
NNNI6
I1
I0
tbS'linear'
tRp9
sS'shrinking'
p10
I00
sS'nu'
p11
F0.1228695082137593
sS'tol'
p12
F0.0039637425357421487
st.(cnumpy.core.multiarray
scalar
p1
(cnumpy
dtype
p2
(S'f8'
I0
I1
tRp3
(I3
S'<'
NNNI-1
I-1
I0
tbS'"0v\x05\xeb\xee\xe2?'
tRp4
g1
(g3
S'DDDD \xf3\xa3?'
tRp5
(dp6
S'kernel'
p7
g1
(g2
(S'S3'
I0
I1
tRp8
(I3
S'|'
NNNI3
I1
I0
tbS'rbf'
tRp9
sS'tol'
p10
F0.0053684333538188394
sS'shrinking'
p11
I00
sS'nu'
p12
F0.008362783104362892
sS'gamma'
p13
F0.59703841359855458
st.(cnumpy.core.multiarray
scalar
p1
(cnumpy
dtype
p2
(S'f8'
I0
I1
tRp3
(I3
S'<'
NNNI-1
I-1
I0
tbS'\x9f\x1b\xe6\xe0\xce\xf6\xe2?'
tRp4
g1
(g3
S'wwww\xc7\xda\x8d?'
tRp5
(dp6
S'kernel'
p7
g1
(g2
(S'S6'
I0
I1
tRp8
(I3
S'|'
NNNI6
I1
I0
tbS'linear'
tRp9
sS'shrinking'
p10
I00
sS'nu'
p11
F0.11051583238294349
sS'tol'
p12
F0.0079765625005220747
st.(cnumpy.core.multiarray
scalar
p1
(cnumpy
dtype
p2
(S'f8'
I0
I1
tRp3
(I3
S'<'
NNNI-1
I-1
I0
tbS'\x10\xdc\xf9=\x9cS\xe2?'
tRp4
g1
(g3
S'\xde\xdd\xdd\xdd\x8f=\xb0?'
tRp5
(dp6
S'kernel'
p7
g1
(g2
(S'S3'
I0
I1
tRp8
(I3
S'|'
NNNI3
I1
I0
tbS'rbf'
tRp9
sS'tol'
p10
F0.0076438015571021227
sS'shrinking'
p11
I01
sS'nu'
p12
F0.13445749449728006
sS'gamma'
p13
F0.89563008670486666
st.(cnumpy.core.multiarray
scalar
p1
(cnumpy
dtype
p2
(S'f8'
I0
I1
tRp3
(I3
S'<'
NNNI-1
I-1
I0
tbS'\xf4\xdb\x80\xfc\xb5\xe4\xe6?'
tRp4
g1
(g3
S'\x89\x88\x88\xc8zK\xe0?'
tRp5
(dp6
S'kernel'
p7
g1
(g2
(S'S4'
I0
I1
tRp8
(I3
S'|'
NNNI4
I1
I0
tbS'poly'
tRp9
sS'degree'
p10
I4
sS'coef0'
p11
F0.13741261124141679
sS'tol'
p12
F0.0070934240967991261
sS'shrinking'
p13
I00
sS'nu'
p14
F0.10734820800826383
sS'gamma'
p15
F0.96192109126846659
st.(cnumpy.core.multiarray
scalar
p1
(cnumpy
dtype
p2
(S'f8'
I0
I1
tRp3
(I3
S'<'
NNNI-1
I-1
I0
tbS'\\\xe0@J\x97"\xbd\xbf'
tRp4
g1
(g3
S'\xef\xee\xee\xee\x16\xbc\xb2?'
tRp5
(dp6
S'kernel'
p7
g1
(g2
(S'S7'
I0
I1
tRp8
(I3
S'|'
NNNI7
I1
I0
tbS'sigmoid'
tRp9
sS'coef0'
p10
F0.8635464679942394
sS'tol'
p11
F0.0027858698660273204
sS'shrinking'
p12
I01
sS'nu'
p13
F0.10116680089491104
sS'gamma'
p14
F0.94791368238434548
st.(cnumpy.core.multiarray
scalar
p1
(cnumpy
dtype
p2
(S'f8'
I0
I1
tRp3
(I3
S'<'
NNNI-1
I-1
I0
tbS'\x07%\x88\xfa\t]\xe8?'
tRp4
g1
(g3
S'\x89\x88\x88\x88\xc9k\xc7?'
tRp5
(dp6
S'kernel'
p7
g1
(g2
(S'S4'
I0
I1
tRp8
(I3
S'|'
NNNI4
I1
I0
tbS'poly'
tRp9
sS'degree'
p10
I3
sS'coef0'
p11
F0.33667492322869907
sS'tol'
p12
F0.028479409131751739
sS'shrinking'
p13
I00
sS'nu'
p14
F0.11440325357610248
sS'gamma'
p15
F0.4008847661097471
st.(cnumpy.core.multiarray
scalar
p1
(cnumpy
dtype
p2
(S'f8'
I0
I1
tRp3
(I3
S'<'
NNNI-1
I-1
I0
tbS'\xa1l\xee\xdf\xac \xe2?'
tRp4
g1
(g3
S'\x89\x88\x88\x88\x1a\x07\xb5?'
tRp5
(dp6
S'kernel'
p7
g1
(g2
(S'S3'
I0
I1
tRp8
(I3
S'|'
NNNI3
I1
I0
tbS'rbf'
tRp9
sS'tol'
p10
F0.0058268707999780149
sS'shrinking'
p11
I00
sS'nu'
p12
F0.012935659880556893
sS'gamma'
p13
F0.94076870121116396
st.(cnumpy.core.multiarray
scalar
p1
(cnumpy
dtype
p2
(S'f8'
I0
I1
tRp3
(I3
S'<'
NNNI-1
I-1
I0
tbS'\xceE2\x8b\xa5f\xe5?'
tRp4
g1
(g3
S'\xbc\xbb\xbb\xbbKp\xc7?'
tRp5
(dp6
S'kernel'
p7
g1
(g2
(S'S4'
I0
I1
tRp8
(I3
S'|'
NNNI4
I1
I0
tbS'poly'
tRp9
sS'degree'
p10
I5
sS'coef0'
p11
F0.6004202897489449
sS'tol'
p12
F0.007613156698890026
sS'shrinking'
p13
I01
sS'nu'
p14
F0.026680773439710759
sS'gamma'
p15
F0.6485887223130693
st.(cnumpy.core.multiarray
scalar
p1
(cnumpy
dtype
p2
(S'f8'
I0
I1
tRp3
(I3
S'<'
NNNI-1
I-1
I0
tbS'ILB\x98,\xa4\xe7?'
tRp4
g1
(g3
S'\xbc\xbb\xbb\xbb"\xfb\xd8?'
tRp5
(dp6
S'kernel'
p7
g1
(g2
(S'S4'
I0
I1
tRp8
(I3
S'|'
NNNI4
I1
I0
tbS'poly'
tRp9
sS'degree'
p10
I4
sS'coef0'
p11
F0.72741527299847297
sS'tol'
p12
F0.0077040204874696434
sS'shrinking'
p13
I00
sS'nu'
p14
F0.085298702224309242
sS'gamma'
p15
F0.27585451741256317
st.(cnumpy.core.multiarray
scalar
p1
(cnumpy
dtype
p2
(S'f8'
I0
I1
tRp3
(I3
S'<'
NNNI-1
I-1
I0
tbS'\xe3\xa7\xac\xeb\x89\xc8\xb2\xbf'
tRp4
g1
(g3
S'\xcd\xcc\xcc\xcc|\xab\x9f?'
tRp5
(dp6
S'kernel'
p7
g1
(g2
(S'S7'
I0
I1
tRp8
(I3
S'|'
NNNI7
I1
I0
tbS'sigmoid'
tRp9
sS'coef0'
p10
F0.35102077182718983
sS'tol'
p11
F0.010121260530990349
sS'shrinking'
p12
I00
sS'nu'
p13
F0.10073419906197389
sS'gamma'
p14
F0.32175468244405481
st.(cnumpy.core.multiarray
scalar
p1
(cnumpy
dtype
p2
(S'f8'
I0
I1
tRp3
(I3
S'<'
NNNI-1
I-1
I0
tbS'\x90\xd4\x1f\x1do\x19\xbd\xbf'
tRp4
g1
(g3
S'\xef\xee\xee\xeer\xfb\xa8?'
tRp5
(dp6
S'kernel'
p7
g1
(g2
(S'S7'
I0
I1
tRp8
(I3
S'|'
NNNI7
I1
I0
tbS'sigmoid'
tRp9
sS'coef0'
p10
F0.84029487398348479
sS'tol'
p11
F0.004351896886254176
sS'shrinking'
p12
I01
sS'nu'
p13
F0.01054274014990797
sS'gamma'
p14
F0.55633376152533809
st.