(cnumpy.core.multiarray
scalar
p1
(cnumpy
dtype
p2
(S'f8'
I0
I1
tRp3
(I3
S'<'
NNNI-1
I-1
I0
tbS'o2<-\x04\x96h\xbf'
tRp4
g1
(g3
S'\x00\x00\x00\x00\xa0\xbat?'
tRp5
(dp6
S'warm_start'
p7
I00
sS'loss'
p8
g1
(g2
(S'S5'
I0
I1
tRp9
(I3
S'|'
NNNI5
I1
I0
tbS'hinge'
tRp10
sS'C'
F5.5392519904103073e-05
sS'shuffle'
p11
I01
sS'n_iter'
p12
I1
sS'fit_intercept'
p13
I01
st.(cnumpy.core.multiarray
scalar
p1
(cnumpy
dtype
p2
(S'f8'
I0
I1
tRp3
(I3
S'<'
NNNI-1
I-1
I0
tbS'6\x9b<\xa6\x04\x9c\xc6?'
tRp4
g1
(g3
S'\x89\x88\x88\x88\x08\xe1\x82?'
tRp5
(dp6
S'warm_start'
p7
I01
sS'loss'
p8
g1
(g2
(S'S5'
I0
I1
tRp9
(I3
S'|'
NNNI5
I1
I0
tbS'hinge'
tRp10
sS'C'
F0.022654093612905376
sS'shuffle'
p11
I01
sS'n_iter'
p12
I2
sS'fit_intercept'
p13
I01
st.(cnumpy.core.multiarray
scalar
p1
(cnumpy
dtype
p2
(S'f8'
I0
I1
tRp3
(I3
S'<'
NNNI-1
I-1
I0
tbS'\x06\x97\xf2@\xd8r\xd0?'
tRp4
g1
(g3
S'UUUU\x95\xa3`?'
tRp5
(dp6
S'warm_start'
p7
I00
sS'loss'
p8
g1
(g2
(S'S13'
I0
I1
tRp9
(I3
S'|'
NNNI13
I1
I0
tbS'squared_hinge'
tRp10
sS'C'
F62.718368855927935
sS'shuffle'
p11
I00
sS'n_iter'
p12
I2
sS'fit_intercept'
p13
I00
st.(cnumpy.core.multiarray
scalar
p1
(cnumpy
dtype
p2
(S'f8'
I0
I1
tRp3
(I3
S'<'
NNNI-1
I-1
I0
tbS'\x1bc\x19\xcf\xc5\xb0\xd1?'
tRp4
g1
(g3
S'\xbc\xbb\xbb\xbb{a\x81?'
tRp5
(dp6
S'warm_start'
p7
I00
sS'loss'
p8
g1
(g2
(S'S5'
I0
I1
tRp9
(I3
S'|'
NNNI5
I1
I0
tbS'hinge'
tRp10
sS'C'
F13267.633537990236
sS'shuffle'
p11
I01
sS'n_iter'
p12
I2
sS'fit_intercept'
p13
I00
st.(cnumpy.core.multiarray
scalar
p1
(cnumpy
dtype
p2
(S'f8'
I0
I1
tRp3
(I3
S'<'
NNNI-1
I-1
I0
tbS'\xeb\xa3L"\x16\xe6\xd1?'
tRp4
g1
(g3
S'\xab\xaa\xaa\xaaj\x9ba?'
tRp5
(dp6
S'warm_start'
p7
I00
sS'loss'
p8
g1
(g2
(S'S13'
I0
I1
tRp9
(I3
S'|'
NNNI13
I1
I0
tbS'squared_hinge'
tRp10
sS'C'
F2.083657826998174
sS'shuffle'
p11
I00
sS'n_iter'
p12
I2
sS'fit_intercept'
p13
I01
st.(cnumpy.core.multiarray
scalar
p1
(cnumpy
dtype
p2
(S'f8'
I0
I1
tRp3
(I3
S'<'
NNNI-1
I-1
I0
tbS'<\x0b\x07\xeb\xe0\xc1\xc7?'
tRp4
g1
(g3
S'\x00\x00\x00\x00@\x85u?'
tRp5
(dp6
S'warm_start'
p7
I00
sS'loss'
p8
g1
(g2
(S'S13'
I0
I1
tRp9
(I3
S'|'
NNNI13
I1
I0
tbS'squared_hinge'
tRp10
sS'C'
F0.051508082153017595
sS'shuffle'
p11
I01
sS'n_iter'
p12
I1
sS'fit_intercept'
p13
I01
st.(cnumpy.core.multiarray
scalar
p1
(cnumpy
dtype
p2
(S'f8'
I0
I1
tRp3
(I3
S'<'
NNNI-1
I-1
I0
tbS'\tSPPy\x91\xc6?'
tRp4
g1
(g3
S'\x11\x11\x11\x11\x91\xaa[?'
tRp5
(dp6
S'warm_start'
p7
I01
sS'loss'
p8
g1
(g2
(S'S5'
I0
I1
tRp9
(I3
S'|'
NNNI5
I1
I0
tbS'hinge'
tRp10
sS'C'
F31.391116828952242
sS'shuffle'
p11
I00
sS'n_iter'
p12
I1
sS'fit_intercept'
p13
I00
st.(cnumpy.core.multiarray
scalar
p1
(cnumpy
dtype
p2
(S'f8'
I0
I1
tRp3
(I3
S'<'
NNNI-1
I-1
I0
tbS'\x1a\xd2\x9dQ\x9aR\xc6?'
tRp4
g1
(g3
S'\x11\x11\x11\x11\x11\xa3[?'
tRp5
(dp6
S'warm_start'
p7
I00
sS'loss'
p8
g1
(g2
(S'S13'
I0
I1
tRp9
(I3
S'|'
NNNI13
I1
I0
tbS'squared_hinge'
tRp10
sS'C'
F20.957486059177342
sS'shuffle'
p11
I00
sS'n_iter'
p12
I1
sS'fit_intercept'
p13
I01
st.(cnumpy.core.multiarray
scalar
p1
(cnumpy
dtype
p2
(S'f8'
I0
I1
tRp3
(I3
S'<'
NNNI-1
I-1
I0
tbS'\xd0m\x83n\xfa\xbb\xd4?'
tRp4
g1
(g3
S'\x89\x88\x88\x88\x08Vo?'
tRp5
(dp6
S'warm_start'
p7
I00
sS'loss'
p8
g1
(g2
(S'S5'
I0
I1
tRp9
(I3
S'|'
NNNI5
I1
I0
tbS'hinge'
tRp10
sS'C'
F1977.1357960403129
sS'shuffle'
p11
I00
sS'n_iter'
p12
I5
sS'fit_intercept'
p13
I00
st.(cnumpy.core.multiarray
scalar
p1
(cnumpy
dtype
p2
(S'f8'
I0
I1
tRp3
(I3
S'<'
NNNI-1
I-1
I0
tbS'e\xc1m0\xa2r\xcb?'
tRp4
g1
(g3
S'UUUU\x95\x19c?'
tRp5
(dp6
S'warm_start'
p7
I01
sS'loss'
p8
g1
(g2
(S'S13'
I0
I1
tRp9
(I3
S'|'
NNNI13
I1
I0
tbS'squared_hinge'
tRp10
sS'C'
F0.029839591119050671
sS'shuffle'
p11
I00
sS'n_iter'
p12
I4
sS'fit_intercept'
p13
I00
st.(cnumpy.core.multiarray
scalar
p1
(cnumpy
dtype
p2
(S'f8'
I0
I1
tRp3
(I3
S'<'
NNNI-1
I-1
I0
tbS'\xdd\x84\xd0\xde+\x8a\xd4?'
tRp4
g1
(g3
S'3333\xb3da?'
tRp5
(dp6
S'warm_start'
p7
I01
sS'loss'
p8
g1
(g2
(S'S5'
I0
I1
tRp9
(I3
S'|'
NNNI5
I1
I0
tbS'hinge'
tRp10
sS'C'
F20.867233324547382
sS'shuffle'
p11
I00
sS'n_iter'
p12
I3
sS'fit_intercept'
p13
I01
st.(cnumpy.core.multiarray
scalar
p1
(cnumpy
dtype
p2
(S'f8'
I0
I1
tRp3
(I3
S'<'
NNNI-1
I-1
I0
tbS'\xa2K\xc1G\xc6\x97\xc1?'
tRp4
g1
(g3
S'\x9a\x99\x99\x99\x19Y]?'
tRp5
(dp6
S'warm_start'
p7
I01
sS'loss'
p8
g1
(g2
(S'S13'
I0
I1
tRp9
(I3
S'|'
NNNI13
I1
I0
tbS'squared_hinge'
tRp10
sS'C'
F0.0020978545647097409
sS'shuffle'
p11
I00
sS'n_iter'
p12
I1
sS'fit_intercept'
p13
I00
st.(cnumpy.core.multiarray
scalar
p1
(cnumpy
dtype
p2
(S'f8'
I0
I1
tRp3
(I3
S'<'
NNNI-1
I-1
I0
tbS'\xe3\xdc4\xa5\xc4\xb0\xba?'
tRp4
g1
(g3
S'\xbc\xbb\xbb\xbb;\x97w?'
tRp5
(dp6
S'warm_start'
p7
I00
sS'loss'
p8
g1
(g2
(S'S13'
I0
I1
tRp9
(I3
S'|'
NNNI13
I1
I0
tbS'squared_hinge'
tRp10
sS'C'
F0.00050219457049703663
sS'shuffle'
p11
I01
sS'n_iter'
p12
I1
sS'fit_intercept'
p13
I01
st.(cnumpy.core.multiarray
scalar
p1
(cnumpy
dtype
p2
(S'f8'
I0
I1
tRp3
(I3
S'<'
NNNI-1
I-1
I0
tbS'\xee.\x92vmP\xc6?'
tRp4
g1
(g3
S'\xde\xdd\xdd\xdd]\xe7\\?'
tRp5
(dp6
S'warm_start'
p7
I00
sS'loss'
p8
g1
(g2
(S'S5'
I0
I1
tRp9
(I3
S'|'
NNNI5
I1
I0
tbS'hinge'
tRp10
sS'C'
F21723.538307117047
sS'shuffle'
p11
I00
sS'n_iter'
p12
I1
sS'fit_intercept'
p13
I01
st.(cnumpy.core.multiarray
scalar
p1
(cnumpy
dtype
p2
(S'f8'
I0
I1
tRp3
(I3
S'<'
NNNI-1
I-1
I0
tbS'\xcb(\xc2\x972w\xd0?'
tRp4
g1
(g3
S'wwww7hl?'
tRp5
(dp6
S'warm_start'
p7
I01
sS'loss'
p8
g1
(g2
(S'S5'
I0
I1
tRp9
(I3
S'|'
NNNI5
I1
I0
tbS'hinge'
tRp10
sS'C'
F4.1755849196661812
sS'shuffle'
p11
I00
sS'n_iter'
p12
I2
sS'fit_intercept'
p13
I00
st.(cnumpy.core.multiarray
scalar
p1
(cnumpy
dtype
p2
(S'f8'
I0
I1
tRp3
(I3
S'<'
NNNI-1
I-1
I0
tbS'o\xd5\x02\xf9\xd4g\xce?'
tRp4
g1
(g3
S'ffff\xe6\xcb~?'
tRp5
(dp6
S'warm_start'
p7
I01
sS'loss'
p8
g1
(g2
(S'S13'
I0
I1
tRp9
(I3
S'|'
NNNI13
I1
I0
tbS'squared_hinge'
tRp10
sS'C'
F0.013471624329335885
sS'shuffle'
p11
I01
sS'n_iter'
p12
I1
sS'fit_intercept'
p13
I01
st.(cnumpy.core.multiarray
scalar
p1
(cnumpy
dtype
p2
(S'f8'
I0
I1
tRp3
(I3
S'<'
NNNI-1
I-1
I0
tbS'\t\xe3\xc8\xc1\xd0\x1c\xd3?'
tRp4
g1
(g3
S'\x89\x88\x88\x88H\x94g?'
tRp5
(dp6
S'warm_start'
p7
I01
sS'loss'
p8
g1
(g2
(S'S5'
I0
I1
tRp9
(I3
S'|'
NNNI5
I1
I0
tbS'hinge'
tRp10
sS'C'
F8404.23447281464
sS'shuffle'
p11
I00
sS'n_iter'
p12
I2
sS'fit_intercept'
p13
I01
st.(cnumpy.core.multiarray
scalar
p1
(cnumpy
dtype
p2
(S'f8'
I0
I1
tRp3
(I3
S'<'
NNNI-1
I-1
I0
tbS'\x84\xd3p\xdb\xf3\xcb\xa1?'
tRp4
g1
(g3
S'\x11\x11\x11\x11\x91\x02\x8d?'
tRp5
(dp6
S'warm_start'
p7
I01
sS'loss'
p8
g1
(g2
(S'S13'
I0
I1
tRp9
(I3
S'|'
NNNI13
I1
I0
tbS'squared_hinge'
tRp10
sS'C'
F7.5150530738424181e-05
sS'shuffle'
p11
I01
sS'n_iter'
p12
I1
sS'fit_intercept'
p13
I00
st.(cnumpy.core.multiarray
scalar
p1
(cnumpy
dtype
p2
(S'f8'
I0
I1
tRp3
(I3
S'<'
NNNI-1
I-1
I0
tbS'|T\xc2\x98\xbbJ\xc5?'
tRp4
g1
(g3
S'\xef\xee\xee\xee\xce\x94}?'
tRp5
(dp6
S'warm_start'
p7
I01
sS'loss'
p8
g1
(g2
(S'S5'
I0
I1
tRp9
(I3
S'|'
NNNI5
I1
I0
tbS'hinge'
tRp10
sS'C'
F12594.820850953933
sS'shuffle'
p11
I01
sS'n_iter'
p12
I1
sS'fit_intercept'
p13
I01
st.(cnumpy.core.multiarray
scalar
p1
(cnumpy
dtype
p2
(S'f8'
I0
I1
tRp3
(I3
S'<'
NNNI-1
I-1
I0
tbS'\x8a\xe3\x14*\xfa\xbe\xc7?'
tRp4
g1
(g3
S'UUUU\xb5Y}?'
tRp5
(dp6
S'warm_start'
p7
I00
sS'loss'
p8
g1
(g2
(S'S5'
I0
I1
tRp9
(I3
S'|'
NNNI5
I1
I0
tbS'hinge'
tRp10
sS'C'
F432.8595672188705
sS'shuffle'
p11
I01
sS'n_iter'
p12
I1
sS'fit_intercept'
p13
I00
st.(cnumpy.core.multiarray
scalar
p1
(cnumpy
dtype
p2
(S'f8'
I0
I1
tRp3
(I3
S'<'
NNNI-1
I-1
I0
tbS'\xc6\xf0\xcd?(M\xc5?'
tRp4
g1
(g3
S'ffff\x86p}?'
tRp5
(dp6
S'warm_start'
p7
I01
sS'loss'
p8
g1
(g2
(S'S5'
I0
I1
tRp9
(I3
S'|'
NNNI5
I1
I0
tbS'hinge'
tRp10
sS'C'
F0.063126141584775905
sS'shuffle'
p11
I01
sS'n_iter'
p12
I1
sS'fit_intercept'
p13
I00
st.(cnumpy.core.multiarray
scalar
p1
(cnumpy
dtype
p2
(S'f8'
I0
I1
tRp3
(I3
S'<'
NNNI-1
I-1
I0
tbS'\x17*\xf8q\x81\xb4\xd1?'
tRp4
g1
(g3
S'wwww7\xf5i?'
tRp5
(dp6
S'warm_start'
p7
I01
sS'loss'
p8
g1
(g2
(S'S5'
I0
I1
tRp9
(I3
S'|'
NNNI5
I1
I0
tbS'hinge'
tRp10
sS'C'
F6.3826631558273803
sS'shuffle'
p11
I00
sS'n_iter'
p12
I3
sS'fit_intercept'
p13
I00
st.(cnumpy.core.multiarray
scalar
p1
(cnumpy
dtype
p2
(S'f8'
I0
I1
tRp3
(I3
S'<'
NNNI-1
I-1
I0
tbS'\xda\xb1\x01l\x08B\xc5?'
tRp4
g1
(g3
S'\x00\x00\x00\x00\xc0\xce}?'
tRp5
(dp6
S'warm_start'
p7
I01
sS'loss'
p8
g1
(g2
(S'S5'
I0
I1
tRp9
(I3
S'|'
NNNI5
I1
I0
tbS'hinge'
tRp10
sS'C'
F0.060530129778058731
sS'shuffle'
p11
I01
sS'n_iter'
p12
I1
sS'fit_intercept'
p13
I00
st.(cnumpy.core.multiarray
scalar
p1
(cnumpy
dtype
p2
(S'f8'
I0
I1
tRp3
(I3
S'<'
NNNI-1
I-1
I0
tbS'k\xf8\x0e-7\xe6\xcf?'
tRp4
g1
(g3
S'\xcd\xcc\xcc\xcc\x0c\x07o?'
tRp5
(dp6
S'warm_start'
p7
I00
sS'loss'
p8
g1
(g2
(S'S13'
I0
I1
tRp9
(I3
S'|'
NNNI13
I1
I0
tbS'squared_hinge'
tRp10
sS'C'
F0.15221038192413694
sS'shuffle'
p11
I00
sS'n_iter'
p12
I4
sS'fit_intercept'
p13
I01
st.(cnumpy.core.multiarray
scalar
p1
(cnumpy
dtype
p2
(S'f8'
I0
I1
tRp3
(I3
S'<'
NNNI-1
I-1
I0
tbS'<(\xa7\xc7\\\xb2\xce?'
tRp4
g1
(g3
S'\x89\x88\x88\x88\xe8\x84s?'
tRp5
(dp6
S'warm_start'
p7
I01
sS'loss'
p8
g1
(g2
(S'S5'
I0
I1
tRp9
(I3
S'|'
NNNI5
I1
I0
tbS'hinge'
tRp10
sS'C'
F0.50351168987554862
sS'shuffle'
p11
I01
sS'n_iter'
p12
I1
sS'fit_intercept'
p13
I00
st.(cnumpy.core.multiarray
scalar
p1
(cnumpy
dtype
p2
(S'f8'
I0
I1
tRp3
(I3
S'<'
NNNI-1
I-1
I0
tbS'\x92\xd7\x93y\xde\xf6\xc4?'
tRp4
g1
(g3
S'\x9a\x99\x99\x99\xb9Vt?'
tRp5
(dp6
S'warm_start'
p7
I00
sS'loss'
p8
g1
(g2
(S'S13'
I0
I1
tRp9
(I3
S'|'
NNNI13
I1
I0
tbS'squared_hinge'
tRp10
sS'C'
F0.0054098505218754169
sS'shuffle'
p11
I01
sS'n_iter'
p12
I1
sS'fit_intercept'
p13
I00
st.(cnumpy.core.multiarray
scalar
p1
(cnumpy
dtype
p2
(S'f8'
I0
I1
tRp3
(I3
S'<'
NNNI-1
I-1
I0
tbS'j\xe4\xfcs\x82\xe4\xcc?'
tRp4
g1
(g3
S'3333s\x99q?'
tRp5
(dp6
S'warm_start'
p7
I00
sS'loss'
p8
g1
(g2
(S'S13'
I0
I1
tRp9
(I3
S'|'
NNNI13
I1
I0
tbS'squared_hinge'
tRp10
sS'C'
F0.014547731988134648
sS'shuffle'
p11
I00
sS'n_iter'
p12
I6
sS'fit_intercept'
p13
I00
st.(cnumpy.core.multiarray
scalar
p1
(cnumpy
dtype
p2
(S'f8'
I0
I1
tRp3
(I3
S'<'
NNNI-1
I-1
I0
tbS'\xe7\xd9\xb1\x85\x12`\xc6?'
tRp4
g1
(g3
S'\xab\xaa\xaa\xaa\xca\x1b\x81?'
tRp5
(dp6
S'warm_start'
p7
I00
sS'loss'
p8
g1
(g2
(S'S13'
I0
I1
tRp9
(I3
S'|'
NNNI13
I1
I0
tbS'squared_hinge'
tRp10
sS'C'
F0.65194420164629074
sS'shuffle'
p11
I01
sS'n_iter'
p12
I2
sS'fit_intercept'
p13
I01
st.(cnumpy.core.multiarray
scalar
p1
(cnumpy
dtype
p2
(S'f8'
I0
I1
tRp3
(I3
S'<'
NNNI-1
I-1
I0
tbS'\x1c\x83"\x02\x17\x10\xd2?'
tRp4
g1
(g3
S'UUUU\xb5\xed\x80?'
tRp5
(dp6
S'warm_start'
p7
I00
sS'loss'
p8
g1
(g2
(S'S5'
I0
I1
tRp9
(I3
S'|'
NNNI5
I1
I0
tbS'hinge'
tRp10
sS'C'
F290.8811749535987
sS'shuffle'
p11
I01
sS'n_iter'
p12
I2
sS'fit_intercept'
p13
I00
st.(cnumpy.core.multiarray
scalar
p1
(cnumpy
dtype
p2
(S'f8'
I0
I1
tRp3
(I3
S'<'
NNNI-1
I-1
I0
tbS'\xa6\x1b\x11\xba\xca\xdc\xa5?'
tRp4
g1
(g3
S'3333\xd3\xfc\x80?'
tRp5
(dp6
S'warm_start'
p7
I01
sS'loss'
p8
g1
(g2
(S'S13'
I0
I1
tRp9
(I3
S'|'
NNNI13
I1
I0
tbS'squared_hinge'
tRp10
sS'C'
F4.9875949225036944e-05
sS'shuffle'
p11
I01
sS'n_iter'
p12
I2
sS'fit_intercept'
p13
I00
st.(cnumpy.core.multiarray
scalar
p1
(cnumpy
dtype
p2
(S'f8'
I0
I1
tRp3
(I3
S'<'
NNNI-1
I-1
I0
tbS'\xf5y\x06\xb4\x03E\xce?'
tRp4
g1
(g3
S'\xde\xdd\xdd\xdd}\xc3u?'
tRp5
(dp6
S'warm_start'
p7
I01
sS'loss'
p8
g1
(g2
(S'S13'
I0
I1
tRp9
(I3
S'|'
NNNI13
I1
I0
tbS'squared_hinge'
tRp10
sS'C'
F217.32795575134284
sS'shuffle'
p11
I01
sS'n_iter'
p12
I1
sS'fit_intercept'
p13
I00
st.(cnumpy.core.multiarray
scalar
p1
(cnumpy
dtype
p2
(S'f8'
I0
I1
tRp3
(I3
S'<'
NNNI-1
I-1
I0
tbS'4\xbd\xce[\x01\x0c\xbb?'
tRp4
g1
(g3
S'3333\xb3\xc4\\?'
tRp5
(dp6
S'warm_start'
p7
I01
sS'loss'
p8
g1
(g2
(S'S5'
I0
I1
tRp9
(I3
S'|'
NNNI5
I1
I0
tbS'hinge'
tRp10
sS'C'
F0.0039270096762311808
sS'shuffle'
p11
I00
sS'n_iter'
p12
I1
sS'fit_intercept'
p13
I01
st.(cnumpy.core.multiarray
scalar
p1
(cnumpy
dtype
p2
(S'f8'
I0
I1
tRp3
(I3
S'<'
NNNI-1
I-1
I0
tbS'\x95\xad@R57\xa5?'
tRp4
g1
(g3
S'wwww\xf7\xed[?'
tRp5
(dp6
S'warm_start'
p7
I00
sS'loss'
p8
g1
(g2
(S'S13'
I0
I1
tRp9
(I3
S'|'
NNNI13
I1
I0
tbS'squared_hinge'
tRp10
sS'C'
F0.00013218896398385668
sS'shuffle'
p11
I00
sS'n_iter'
p12
I1
sS'fit_intercept'
p13
I01
st.(cnumpy.core.multiarray
scalar
p1
(cnumpy
dtype
p2
(S'f8'
I0
I1
tRp3
(I3
S'<'
NNNI-1
I-1
I0
tbS'l$w\xb8\x0f\xbc\xd3?'
tRp4
g1
(g3
S'\x00\x00\x00\x00\xb0T\x80?'
tRp5
(dp6
S'warm_start'
p7
I01
sS'loss'
p8
g1
(g2
(S'S5'
I0
I1
tRp9
(I3
S'|'
NNNI5
I1
I0
tbS'hinge'
tRp10
sS'C'
F0.048495822493228258
sS'shuffle'
p11
I01
sS'n_iter'
p12
I2
sS'fit_intercept'
p13
I00
st.