(cnumpy.core.multiarray
scalar
p1
(cnumpy
dtype
p2
(S'f8'
I0
I1
tRp3
(I3
S'<'
NNNI-1
I-1
I0
tbS'!}i\xfa\xef&\xe3?'
tRp4
g1
(g3
S'DDDDD\xaa^?'
tRp5
(dp6
S'reg_param'
p7
F0.44067153978629803
st.(cnumpy.core.multiarray
scalar
p1
(cnumpy
dtype
p2
(S'f8'
I0
I1
tRp3
(I3
S'<'
NNNI-1
I-1
I0
tbS'\x806\xde\xc7\xe2\xc2\xe1?'
tRp4
g1
(g3
S'\x00\x00\x00\x00\x00}^?'
tRp5
(dp6
S'reg_param'
p7
F0.82068687986819377
st.(cnumpy.core.multiarray
scalar
p1
(cnumpy
dtype
p2
(S'f8'
I0
I1
tRp3
(I3
S'<'
NNNI-1
I-1
I0
tbS'\xfd\xc4\x81\xa0\xee\x07\xe3?'
tRp4
g1
(g3
S'\x11\x11\x11\x11\x91d`?'
tRp5
(dp6
S'reg_param'
p7
F0.5367209555077056
st.(cnumpy.core.multiarray
scalar
p1
(cnumpy
dtype
p2
(S'f8'
I0
I1
tRp3
(I3
S'<'
NNNI-1
I-1
I0
tbS'5\xd0\x85\x19\x97-\xe4?'
tRp4
g1
(g3
S'\xef\xee\xee\xeenS^?'
tRp5
(dp6
S'reg_param'
p7
F0.22293079359530865
st.(cnumpy.core.multiarray
scalar
p1
(cnumpy
dtype
p2
(S'f8'
I0
I1
tRp3
(I3
S'<'
NNNI-1
I-1
I0
tbS'a\xe0/\xf6\xb5\xe7\xe4?'
tRp4
g1
(g3
S'\xbc\xbb\xbb\xbb;\x8b]?'
tRp5
(dp6
S'reg_param'
p7
F0.16826845637682064
st.(cnumpy.core.multiarray
scalar
p1
(cnumpy
dtype
p2
(S'f8'
I0
I1
tRp3
(I3
S'<'
NNNI-1
I-1
I0
tbS'\t\xb0\xf1\x9f^\xb9\xe3?'
tRp4
g1
(g3
S'\xab\xaa\xaa\xaa\xaa\xfc]?'
tRp5
(dp6
S'reg_param'
p7
F0.33845317919302087
st.(cnumpy.core.multiarray
scalar
p1
(cnumpy
dtype
p2
(S'f8'
I0
I1
tRp3
(I3
S'<'
NNNI-1
I-1
I0
tbS' \xe4c8\xb3\xd6\xe6?'
tRp4
g1
(g3
S'\x89\x88\x88\x88\x08q^?'
tRp5
(dp6
S'reg_param'
p7
F0.0099467003445720126
st.(cnumpy.core.multiarray
scalar
p1
(cnumpy
dtype
p2
(S'f8'
I0
I1
tRp3
(I3
S'<'
NNNI-1
I-1
I0
tbS'\xc6V\rM\x82j\xe3?'
tRp4
g1
(g3
S'\xbc\xbb\xbb\xbb;?^?'
tRp5
(dp6
S'reg_param'
p7
F0.36371182531650348
st.(cnumpy.core.multiarray
scalar
p1
(cnumpy
dtype
p2
(S'f8'
I0
I1
tRp3
(I3
S'<'
NNNI-1
I-1
I0
tbS'\xfe\x86\xf3\x9d\x8c\xce\xe1?'
tRp4
g1
(g3
S'wwww\xb7Nb?'
tRp5
(dp6
S'reg_param'
p7
F0.75041838688847007
st.(cnumpy.core.multiarray
scalar
p1
(cnumpy
dtype
p2
(S'f8'
I0
I1
tRp3
(I3
S'<'
NNNI-1
I-1
I0
tbS'\xe9H\x868>\xc5\xe5?'
tRp4
g1
(g3
S'""""\xa2\xff]?'
tRp5
(dp6
S'reg_param'
p7
F0.047286408261795421
st.(cnumpy.core.multiarray
scalar
p1
(cnumpy
dtype
p2
(S'f8'
I0
I1
tRp3
(I3
S'<'
NNNI-1
I-1
I0
tbS'\x1c\xacs\x80\xcf*\xe1?'
tRp4
g1
(g3
S'\xbc\xbb\xbb\xbb\xbb\x1d^?'
tRp5
(dp6
S'reg_param'
p7
F0.86979390708936888
st.(cnumpy.core.multiarray
scalar
p1
(cnumpy
dtype
p2
(S'f8'
I0
I1
tRp3
(I3
S'<'
NNNI-1
I-1
I0
tbS'm\x0fj\x01\x19\xb7\xe1?'
tRp4
g1
(g3
S'\xcd\xcc\xcc\xcc\xcc\xf8\\?'
tRp5
(dp6
S'reg_param'
p7
F0.75622702073927883
st.(cnumpy.core.multiarray
scalar
p1
(cnumpy
dtype
p2
(S'f8'
I0
I1
tRp3
(I3
S'<'
NNNI-1
I-1
I0
tbS'm\x86\x11\xafd\x9e\xe1?'
tRp4
g1
(g3
S'\xbc\xbb\xbb\xbb\xbbK^?'
tRp5
(dp6
S'reg_param'
p7
F0.84442791788658189
st.(cnumpy.core.multiarray
scalar
p1
(cnumpy
dtype
p2
(S'f8'
I0
I1
tRp3
(I3
S'<'
NNNI-1
I-1
I0
tbS'P\xebT2\xde\x99\xe4?'
tRp4
g1
(g3
S'\x9a\x99\x99\x99\x19\x92^?'
tRp5
(dp6
S'reg_param'
p7
F0.13472544637254302
st.(cnumpy.core.multiarray
scalar
p1
(cnumpy
dtype
p2
(S'f8'
I0
I1
tRp3
(I3
S'<'
NNNI-1
I-1
I0
tbS'\xfe\xd9\xdcd\xa8\xac\xe3?'
tRp4
g1
(g3
S'\xef\xee\xee\xee\xee`^?'
tRp5
(dp6
S'reg_param'
p7
F0.36545778172147403
st.(cnumpy.core.multiarray
scalar
p1
(cnumpy
dtype
p2
(S'f8'
I0
I1
tRp3
(I3
S'<'
NNNI-1
I-1
I0
tbS'\xb4`\xf7\x01\x8a\xad\xe3?'
tRp4
g1
(g3
S'fffffB^?'
tRp5
(dp6
S'reg_param'
p7
F0.30427754555733799
st.(cnumpy.core.multiarray
scalar
p1
(cnumpy
dtype
p2
(S'f8'
I0
I1
tRp3
(I3
S'<'
NNNI-1
I-1
I0
tbS'\xbf(\xb7\xce\x1bS\xe1?'
tRp4
g1
(g3
S'\xbc\xbb\xbb\xbb{ma?'
tRp5
(dp6
S'reg_param'
p7
F0.97222997882137574
st.(cnumpy.core.multiarray
scalar
p1
(cnumpy
dtype
p2
(S'f8'
I0
I1
tRp3
(I3
S'<'
NNNI-1
I-1
I0
tbS'5\x12\x9f;\xe9\xaf\xe3?'
tRp4
g1
(g3
S'\xde\xdd\xdd\xdd\x9dx`?'
tRp5
(dp6
S'reg_param'
p7
F0.31131973594731555
st.(cnumpy.core.multiarray
scalar
p1
(cnumpy
dtype
p2
(S'f8'
I0
I1
tRp3
(I3
S'<'
NNNI-1
I-1
I0
tbS'\x02\x1d\xee#\x96+\xe5?'
tRp4
g1
(g3
S'\x9a\x99\x99\x99\x19\x03^?'
tRp5
(dp6
S'reg_param'
p7
F0.086378610599138095
st.(cnumpy.core.multiarray
scalar
p1
(cnumpy
dtype
p2
(S'f8'
I0
I1
tRp3
(I3
S'<'
NNNI-1
I-1
I0
tbS'Z\x7f\xd7\x9c\x8bb\xe2?'
tRp4
g1
(g3
S'3333\xb3\x82]?'
tRp5
(dp6
S'reg_param'
p7
F0.64874610301498115
st.(cnumpy.core.multiarray
scalar
p1
(cnumpy
dtype
p2
(S'f8'
I0
I1
tRp3
(I3
S'<'
NNNI-1
I-1
I0
tbS'\xb9\xd7\xe9\xa2\xaf\x91\xe2?'
tRp4
g1
(g3
S'\xef\xee\xee\xeen\\^?'
tRp5
(dp6
S'reg_param'
p7
F0.56388833251590487
st.(cnumpy.core.multiarray
scalar
p1
(cnumpy
dtype
p2
(S'f8'
I0
I1
tRp3
(I3
S'<'
NNNI-1
I-1
I0
tbS'`\xc1\xf7\xf9\xd6\xaf\xe3?'
tRp4
g1
(g3
S'""""\xa2\xdca?'
tRp5
(dp6
S'reg_param'
p7
F0.32507010837490902
st.(cnumpy.core.multiarray
scalar
p1
(cnumpy
dtype
p2
(S'f8'
I0
I1
tRp3
(I3
S'<'
NNNI-1
I-1
I0
tbS'\xa1\xda\x10f=\xa4\xe2?'
tRp4
g1
(g3
S'\xab\xaa\xaa\xaa\xea\xc6`?'
tRp5
(dp6
S'reg_param'
p7
F0.54124039696685367
st.(cnumpy.core.multiarray
scalar
p1
(cnumpy
dtype
p2
(S'f8'
I0
I1
tRp3
(I3
S'<'
NNNI-1
I-1
I0
tbS'\x89\t7~\xcc\xc9\xe1?'
tRp4
g1
(g3
S'fffffFa?'
tRp5
(dp6
S'reg_param'
p7
F0.84961487485197518
st.(cnumpy.core.multiarray
scalar
p1
(cnumpy
dtype
p2
(S'f8'
I0
I1
tRp3
(I3
S'<'
NNNI-1
I-1
I0
tbS'}\x80\x8f\xcf\xab\xcf\xe4?'
tRp4
g1
(g3
S'DDDD\x04\xef`?'
tRp5
(dp6
S'reg_param'
p7
F0.14373786711884906
st.(cnumpy.core.multiarray
scalar
p1
(cnumpy
dtype
p2
(S'f8'
I0
I1
tRp3
(I3
S'<'
NNNI-1
I-1
I0
tbS'BM\xe0G\xc1\x8c\xe4?'
tRp4
g1
(g3
S'\x9a\x99\x99\x99Y\xa2a?'
tRp5
(dp6
S'reg_param'
p7
F0.18561539224807866
st.(cnumpy.core.multiarray
scalar
p1
(cnumpy
dtype
p2
(S'f8'
I0
I1
tRp3
(I3
S'<'
NNNI-1
I-1
I0
tbS'\x05y\xbcX=\x8a\xe4?'
tRp4
g1
(g3
S'\xab\xaa\xaa\xaa\xaaGd?'
tRp5
(dp6
S'reg_param'
p7
F0.19382479631092386
st.(cnumpy.core.multiarray
scalar
p1
(cnumpy
dtype
p2
(S'f8'
I0
I1
tRp3
(I3
S'<'
NNNI-1
I-1
I0
tbS'\xf6\xb6\xef\xdd]\x8c\xe3?'
tRp4
g1
(g3
S'\xbc\xbb\xbb\xbb;\x96b?'
tRp5
(dp6
S'reg_param'
p7
F0.43211060790609268
st.(cnumpy.core.multiarray
scalar
p1
(cnumpy
dtype
p2
(S'f8'
I0
I1
tRp3
(I3
S'<'
NNNI-1
I-1
I0
tbS'\x12\n\x05ZS0\xe5?'
tRp4
g1
(g3
S'\xcd\xcc\xcc\xcc\x0c\x97a?'
tRp5
(dp6
S'reg_param'
p7
F0.11474864844774657
st.(cnumpy.core.multiarray
scalar
p1
(cnumpy
dtype
p2
(S'f8'
I0
I1
tRp3
(I3
S'<'
NNNI-1
I-1
I0
tbS'\xd0\x1e\xec?r)\xe5?'
tRp4
g1
(g3
S'\x00\x00\x00\x00@ a?'
tRp5
(dp6
S'reg_param'
p7
F0.088412363432664232
st.(cnumpy.core.multiarray
scalar
p1
(cnumpy
dtype
p2
(S'f8'
I0
I1
tRp3
(I3
S'<'
NNNI-1
I-1
I0
tbS'\xa5\x8bP/@\xf3\xe4?'
tRp4
g1
(g3
S'""""b"b?'
tRp5
(dp6
S'reg_param'
p7
F0.09706921524956047
st.(cnumpy.core.multiarray
scalar
p1
(cnumpy
dtype
p2
(S'f8'
I0
I1
tRp3
(I3
S'<'
NNNI-1
I-1
I0
tbS'\x80\x8e\xd3\xbc\xa3\x18\xe4?'
tRp4
g1
(g3
S'\x9a\x99\x99\x99Y\xff`?'
tRp5
(dp6
S'reg_param'
p7
F0.21994553442397369
st.(cnumpy.core.multiarray
scalar
p1
(cnumpy
dtype
p2
(S'f8'
I0
I1
tRp3
(I3
S'<'
NNNI-1
I-1
I0
tbS'\xc4&Mf\xc0\x04\xe2?'
tRp4
g1
(g3
S'\x11\x11\x11\x11\x91\xadd?'
tRp5
(dp6
S'reg_param'
p7
F0.78485707972898244
st.(cnumpy.core.multiarray
scalar
p1
(cnumpy
dtype
p2
(S'f8'
I0
I1
tRp3
(I3
S'<'
NNNI-1
I-1
I0
tbS'!Z]Sj\xb3\xe3?'
tRp4
g1
(g3
S'\x00\x00\x00\x00\xc0,a?'
tRp5
(dp6
S'reg_param'
p7
F0.28991966797625934
st.(cnumpy.core.multiarray
scalar
p1
(cnumpy
dtype
p2
(S'f8'
I0
I1
tRp3
(I3
S'<'
NNNI-1
I-1
I0
tbS'1\xe8\xf9\xe9%\xf9\xe4?'
tRp4
g1
(g3
S'\x00\x00\x00\x00\x80\xb1a?'
tRp5
(dp6
S'reg_param'
p7
F0.16934494913210962
st.(cnumpy.core.multiarray
scalar
p1
(cnumpy
dtype
p2
(S'f8'
I0
I1
tRp3
(I3
S'<'
NNNI-1
I-1
I0
tbS'+\xb3\xdf{Y~\xe5?'
tRp4
g1
(g3
S'\xde\xdd\xdd\xdd\x1d\tc?'
tRp5
(dp6
S'reg_param'
p7
F0.14219780317045627
st.(cnumpy.core.multiarray
scalar
p1
(cnumpy
dtype
p2
(S'f8'
I0
I1
tRp3
(I3
S'<'
NNNI-1
I-1
I0
tbS'\xe7K\x00\xac\x80\x99\xe2?'
tRp4
g1
(g3
S'\x89\x88\x88\x88\xc8\xcb`?'
tRp5
(dp6
S'reg_param'
p7
F0.61638711109278621
st.(cnumpy.core.multiarray
scalar
p1
(cnumpy
dtype
p2
(S'f8'
I0
I1
tRp3
(I3
S'<'
NNNI-1
I-1
I0
tbS'\xacy\x86}\xc8 \xe2?'
tRp4
g1
(g3
S'UUUU\x95ja?'
tRp5
(dp6
S'reg_param'
p7
F0.68683126709182474
st.(cnumpy.core.multiarray
scalar
p1
(cnumpy
dtype
p2
(S'f8'
I0
I1
tRp3
(I3
S'<'
NNNI-1
I-1
I0
tbS'\x82\x05s\xd3\xe7Q\xe1?'
tRp4
g1
(g3
S'\xab\xaa\xaa\xaa*\x1ca?'
tRp5
(dp6
S'reg_param'
p7
F0.9797834723424057
st.(cnumpy.core.multiarray
scalar
p1
(cnumpy
dtype
p2
(S'f8'
I0
I1
tRp3
(I3
S'<'
NNNI-1
I-1
I0
tbS'{\xe7V\xce\x02\x11\xe6?'
tRp4
g1
(g3
S'\xbc\xbb\xbb\xbb\xbb]a?'
tRp5
(dp6
S'reg_param'
p7
F0.045223132222956486
st.(cnumpy.core.multiarray
scalar
p1
(cnumpy
dtype
p2
(S'f8'
I0
I1
tRp3
(I3
S'<'
NNNI-1
I-1
I0
tbS'\xe2\x01\xc8\x07~\xb6\xe4?'
tRp4
g1
(g3
S'\x11\x11\x11\x11Q\x17a?'
tRp5
(dp6
S'reg_param'
p7
F0.16850598139906692
st.(cnumpy.core.multiarray
scalar
p1
(cnumpy
dtype
p2
(S'f8'
I0
I1
tRp3
(I3
S'<'
NNNI-1
I-1
I0
tbS'\xc5-\xa6KX\x00\xe1?'
tRp4
g1
(g3
S'\x11\x11\x11\x11\xd1\xf6`?'
tRp5
(dp6
S'reg_param'
p7
F0.94687978940102568
st.(cnumpy.core.multiarray
scalar
p1
(cnumpy
dtype
p2
(S'f8'
I0
I1
tRp3
(I3
S'<'
NNNI-1
I-1
I0
tbS'{5\xc8\t\t\xaa\xe2?'
tRp4
g1
(g3
S'3333\xb3*`?'
tRp5
(dp6
S'reg_param'
p7
F0.54631771741479285
st.(cnumpy.core.multiarray
scalar
p1
(cnumpy
dtype
p2
(S'f8'
I0
I1
tRp3
(I3
S'<'
NNNI-1
I-1
I0
tbS'G\xe9\xd89\xb1{\xe5?'
tRp4
g1
(g3
S'\xef\xee\xee\xee.\x81a?'
tRp5
(dp6
S'reg_param'
p7
F0.087117470051225054
st.(cnumpy.core.multiarray
scalar
p1
(cnumpy
dtype
p2
(S'f8'
I0
I1
tRp3
(I3
S'<'
NNNI-1
I-1
I0
tbS'&p\xdc\xd0\xd7\x13\xe7?'
tRp4
g1
(g3
S'\x9a\x99\x99\x99Y`a?'
tRp5
(dp6
S'reg_param'
p7
F0.0030577581638043805
st.(cnumpy.core.multiarray
scalar
p1
(cnumpy
dtype
p2
(S'f8'
I0
I1
tRp3
(I3
S'<'
NNNI-1
I-1
I0
tbS'\xc0\xfag\xca\x12t\xe4?'
tRp4
g1
(g3
S'3333\xf3\xf6a?'
tRp5
(dp6
S'reg_param'
p7
F0.21511554033397851
st.(cnumpy.core.multiarray
scalar
p1
(cnumpy
dtype
p2
(S'f8'
I0
I1
tRp3
(I3
S'<'
NNNI-1
I-1
I0
tbS'O<\xd6\xe2\x04\xe7\xe1?'
tRp4
g1
(g3
S'UUUUUza?'
tRp5
(dp6
S'reg_param'
p7
F0.74356923360983085
st.(cnumpy.core.multiarray
scalar
p1
(cnumpy
dtype
p2
(S'f8'
I0
I1
tRp3
(I3
S'<'
NNNI-1
I-1
I0
tbS'l\xba57\x87_\xe1?'
tRp4
g1
(g3
S'""""\xe2\xa4a?'
tRp5
(dp6
S'reg_param'
p7
F0.97127591462482266
st.(cnumpy.core.multiarray
scalar
p1
(cnumpy
dtype
p2
(S'f8'
I0
I1
tRp3
(I3
S'<'
NNNI-1
I-1
I0
tbS'qG7?\xb0\xf9\xe1?'
tRp4
g1
(g3
S'\xde\xdd\xdd\xdd\xdd\x81b?'
tRp5
(dp6
S'reg_param'
p7
F0.75830584656082856
st.(cnumpy.core.multiarray
scalar
p1
(cnumpy
dtype
p2
(S'f8'
I0
I1
tRp3
(I3
S'<'
NNNI-1
I-1
I0
tbS'\xe4\xccM\xa8\xc4\x1c\xe1?'
tRp4
g1
(g3
S'\xbc\xbb\xbb\xbb{\xea`?'
tRp5
(dp6
S'reg_param'
p7
F0.9680614926188692
st.(cnumpy.core.multiarray
scalar
p1
(cnumpy
dtype
p2
(S'f8'
I0
I1
tRp3
(I3
S'<'
NNNI-1
I-1
I0
tbS'\xce\xb4\xbf\x94Z\x92\xe2?'
tRp4
g1
(g3
S'DDDD\x04\x84a?'
tRp5
(dp6
S'reg_param'
p7
F0.74822961165120638
st.(cnumpy.core.multiarray
scalar
p1
(cnumpy
dtype
p2
(S'f8'
I0
I1
tRp3
(I3
S'<'
NNNI-1
I-1
I0
tbS'\x0c|\xb0\x00\xa9]\xe1?'
tRp4
g1
(g3
S'\x9a\x99\x99\x99\x99Gb?'
tRp5
(dp6
S'reg_param'
p7
F0.90661032093516825
st.(cnumpy.core.multiarray
scalar
p1
(cnumpy
dtype
p2
(S'f8'
I0
I1
tRp3
(I3
S'<'
NNNI-1
I-1
I0
tbS'\xe6\xe3\x18\x91|J\xe1?'
tRp4
g1
(g3
S'\x11\x11\x11\x11\x11\xd0a?'
tRp5
(dp6
S'reg_param'
p7
F0.97469319456973003
st.(cnumpy.core.multiarray
scalar
p1
(cnumpy
dtype
p2
(S'f8'
I0
I1
tRp3
(I3
S'<'
NNNI-1
I-1
I0
tbS'\xf7#>\x0f\x02.\xe5?'
tRp4
g1
(g3
S'\x11\x11\x11\x11QKd?'
tRp5
(dp6
S'reg_param'
p7
F0.096339684324837749
st.(cnumpy.core.multiarray
scalar
p1
(cnumpy
dtype
p2
(S'f8'
I0
I1
tRp3
(I3
S'<'
NNNI-1
I-1
I0
tbS'):\x90,\xa8\xf7\xe2?'
tRp4
g1
(g3
S'33333\x93a?'
tRp5
(dp6
S'reg_param'
p7
F0.51098066483053795
st.(cnumpy.core.multiarray
scalar
p1
(cnumpy
dtype
p2
(S'f8'
I0
I1
tRp3
(I3
S'<'
NNNI-1
I-1
I0
tbS"'\xae\x03z\x04~\xe3?"
tRp4
g1
(g3
S'\x11\x11\x11\x11\x11\xeba?'
tRp5
(dp6
S'reg_param'
p7
F0.42969717435863231
st.(cnumpy.core.multiarray
scalar
p1
(cnumpy
dtype
p2
(S'f8'
I0
I1
tRp3
(I3
S'<'
NNNI-1
I-1
I0
tbS'\x13)\xca\xf783\xe4?'
tRp4
g1
(g3
S'wwwww?b?'
tRp5
(dp6
S'reg_param'
p7
F0.25317638446908763
st.