(lp1
(dp2
S'reg_param'
p3
F0.33845317919302087
sa(dp4
S'reg_param'
p5
F0.68683126709182474
sa(dp6
S'reg_param'
p7
F0.11474864844774657
sa(dp8
S'reg_param'
p9
F0.0030577581638043805
sa(dp10
S'reg_param'
p11
F0.54631771741479285
sa(dp12
S'reg_param'
p13
F0.97127591462482266
sa(dp14
S'reg_param'
p15
F0.14373786711884906
sa(dp16
S'reg_param'
p17
F0.045223132222956486
sa(dp18
S'reg_param'
p19
F0.25317638446908763
sa(dp20
S'reg_param'
p21
F0.44067153978629803
sa.