(cnumpy.core.multiarray
scalar
p1
(cnumpy
dtype
p2
(S'f8'
I0
I1
tRp3
(I3
S'<'
NNNI-1
I-1
I0
tbS'~\x0e\xfa\xac\xb0\x0e\xba\xbf'
tRp4
g1
(g3
S'\x89\x88\x88\x88]\x91\xde?'
tRp5
(dp6
S'p'
I5
sS'metric'
p7
g1
(g2
(S'S9'
I0
I1
tRp8
(I3
S'|'
NNNI9
I1
I0
tbS'minkowski'
tRp9
sS'radius'
p10
F10.506412109319744
sS'weights'
p11
g1
(g2
(S'S7'
I0
I1
tRp12
(I3
S'|'
NNNI7
I1
I0
tbS'uniform'
tRp13
sS'algorithm'
p14
g1
(g2
(S'S5'
I0
I1
tRp15
(I3
S'|'
NNNI5
I1
I0
tbS'brute'
tRp16
st.(cnumpy.core.multiarray
scalar
p1
(cnumpy
dtype
p2
(S'f8'
I0
I1
tRp3
(I3
S'<'
NNNI-1
I-1
I0
tbS'~\x0e\xfa\xac\xb0\x0e\xba\xbf'
tRp4
g1
(g3
S'\x89\x88\x88\x88\xba}\xda?'
tRp5
(dp6
S'radius'
p7
F149.66025189553039
sS'metric'
p8
g1
(g2
(S'S9'
I0
I1
tRp9
(I3
S'|'
NNNI9
I1
I0
tbS'manhattan'
tRp10
sS'weights'
p11
g1
(g2
(S'S7'
I0
I1
tRp12
(I3
S'|'
NNNI7
I1
I0
tbS'uniform'
tRp13
sS'leaf_size'
p14
I36
sS'algorithm'
p15
g1
(g2
(S'S9'
I0
I1
tRp16
(I3
S'|'
NNNI9
I1
I0
tbS'ball_tree'
tRp17
st.(cnumpy.core.multiarray
scalar
p1
(cnumpy
dtype
p2
(S'f8'
I0
I1
tRp3
(I3
S'<'
NNNI-1
I-1
I0
tbS'~\x0e\xfa\xac\xb0\x0e\xba\xbf'
tRp4
g1
(g3
S'wwww\xf7\xbb\xdb?'
tRp5
(dp6
S'radius'
p7
F16718.109074973137
sS'metric'
p8
g1
(g2
(S'S9'
I0
I1
tRp9
(I3
S'|'
NNNI9
I1
I0
tbS'manhattan'
tRp10
sS'weights'
p11
g1
(g2
(S'S7'
I0
I1
tRp12
(I3
S'|'
NNNI7
I1
I0
tbS'uniform'
tRp13
sS'algorithm'
p14
g1
(g2
(S'S5'
I0
I1
tRp15
(I3
S'|'
NNNI5
I1
I0
tbS'brute'
tRp16
st.(cnumpy.core.multiarray
scalar
p1
(cnumpy
dtype
p2
(S'f8'
I0
I1
tRp3
(I3
S'<'
NNNI-1
I-1
I0
tbS'~\x0e\xfa\xac\xb0\x0e\xba\xbf'
tRp4
g1
(g3
S'\x00\x00\x00\x80\x01`\xda?'
tRp5
(dp6
S'radius'
p7
F6758.561106325099
sS'metric'
p8
g1
(g2
(S'S9'
I0
I1
tRp9
(I3
S'|'
NNNI9
I1
I0
tbS'euclidean'
tRp10
sS'weights'
p11
g1
(g2
(S'S7'
I0
I1
tRp12
(I3
S'|'
NNNI7
I1
I0
tbS'uniform'
tRp13
sS'leaf_size'
p14
I30
sS'algorithm'
p15
g1
(g2
(S'S7'
I0
I1
tRp16
(I3
S'|'
NNNI7
I1
I0
tbS'kd_tree'
tRp17
st.(cnumpy.core.multiarray
scalar
p1
(cnumpy
dtype
p2
(S'f8'
I0
I1
tRp3
(I3
S'<'
NNNI-1
I-1
I0
tbS'~\x0e\xfa\xac\xb0\x0e\xba\xbf'
tRp4
g1
(g3
S'DDD\xc4\xb3\x83\xdd?'
tRp5
(dp6
S'p'
I15
sS'metric'
p7
g1
(g2
(S'S9'
I0
I1
tRp8
(I3
S'|'
NNNI9
I1
I0
tbS'minkowski'
tRp9
sS'radius'
p10
F1917.399704914307
sS'weights'
p11
g1
(g2
(S'S7'
I0
I1
tRp12
(I3
S'|'
NNNI7
I1
I0
tbS'uniform'
tRp13
sS'algorithm'
p14
g1
(g2
(S'S5'
I0
I1
tRp15
(I3
S'|'
NNNI5
I1
I0
tbS'brute'
tRp16
st.(cnumpy.core.multiarray
scalar
p1
(cnumpy
dtype
p2
(S'f8'
I0
I1
tRp3
(I3
S'<'
NNNI-1
I-1
I0
tbS'S\xa1^d\xe4l\xbc?'
tRp4
g1
(g3
S'\xab\xaa\xaa\xaa\xdc\x95\xda?'
tRp5
(dp6
S'radius'
p7
F15608.182806888477
sS'metric'
p8
g1
(g2
(S'S9'
I0
I1
tRp9
(I3
S'|'
NNNI9
I1
I0
tbS'manhattan'
tRp10
sS'weights'
p11
g1
(g2
(S'S8'
I0
I1
tRp12
(I3
S'|'
NNNI8
I1
I0
tbS'distance'
tRp13
sS'leaf_size'
p14
I23
sS'algorithm'
p15
g1
(g2
(S'S9'
I0
I1
tRp16
(I3
S'|'
NNNI9
I1
I0
tbS'ball_tree'
tRp17
st.(cnumpy.core.multiarray
scalar
p1
(cnumpy
dtype
p2
(S'f8'
I0
I1
tRp3
(I3
S'<'
NNNI-1
I-1
I0
tbS'\x16%\xf8\xc2\xab\xa5\xc0?'
tRp4
g1
(g3
S'\x9a\x99\x99\x99{\x8a\xb8?'
tRp5
(dp6
S'radius'
p7
F2.3957685691557771
sS'metric'
p8
g1
(g2
(S'S9'
I0
I1
tRp9
(I3
S'|'
NNNI9
I1
I0
tbS'chebyshev'
tRp10
sS'weights'
p11
g1
(g2
(S'S8'
I0
I1
tRp12
(I3
S'|'
NNNI8
I1
I0
tbS'distance'
tRp13
sS'algorithm'
p14
g1
(g2
(S'S5'
I0
I1
tRp15
(I3
S'|'
NNNI5
I1
I0
tbS'brute'
tRp16
st.(cnumpy.core.multiarray
scalar
p1
(cnumpy
dtype
p2
(S'f8'
I0
I1
tRp3
(I3
S'<'
NNNI-1
I-1
I0
tbS'~\x0e\xfa\xac\xb0\x0e\xba\xbf'
tRp4
g1
(g3
S'\xab\xaa\xaa*\x1a\xf8\xd9?'
tRp5
(dp6
S'radius'
p7
F142.43743227911659
sS'metric'
p8
g1
(g2
(S'S9'
I0
I1
tRp9
(I3
S'|'
NNNI9
I1
I0
tbS'chebyshev'
tRp10
sS'weights'
p11
g1
(g2
(S'S7'
I0
I1
tRp12
(I3
S'|'
NNNI7
I1
I0
tbS'uniform'
tRp13
sS'leaf_size'
p14
I25
sS'algorithm'
p15
g1
(g2
(S'S9'
I0
I1
tRp16
(I3
S'|'
NNNI9
I1
I0
tbS'ball_tree'
tRp17
st.(cnumpy.core.multiarray
scalar
p1
(cnumpy
dtype
p2
(S'f8'
I0
I1
tRp3
(I3
S'<'
NNNI-1
I-1
I0
tbS'~\x0e\xfa\xac\xb0\x0e\xba\xbf'
tRp4
g1
(g3
S'DDDD$\xcb\xdc?'
tRp5
(dp6
S'algorithm'
p7
g1
(g2
(S'S9'
I0
I1
tRp8
(I3
S'|'
NNNI9
I1
I0
tbS'ball_tree'
tRp9
sS'metric'
p10
g1
(g2
(S'S9'
I0
I1
tRp11
(I3
S'|'
NNNI9
I1
I0
tbS'minkowski'
tRp12
sS'p'
I3
sS'radius'
p13
F1824.2766090969524
sS'leaf_size'
p14
I23
sS'weights'
p15
g1
(g2
(S'S7'
I0
I1
tRp16
(I3
S'|'
NNNI7
I1
I0
tbS'uniform'
tRp17
st.(cnumpy.core.multiarray
scalar
p1
(cnumpy
dtype
p2
(S'f8'
I0
I1
tRp3
(I3
S'<'
NNNI-1
I-1
I0
tbS'~\x0e\xfa\xac\xb0\x0e\xba\xbf'
tRp4
g1
(g3
S'UUUU\xf8t\xde?'
tRp5
(dp6
S'p'
I13
sS'metric'
p7
g1
(g2
(S'S9'
I0
I1
tRp8
(I3
S'|'
NNNI9
I1
I0
tbS'minkowski'
tRp9
sS'radius'
p10
F340.8261552599846
sS'weights'
p11
g1
(g2
(S'S7'
I0
I1
tRp12
(I3
S'|'
NNNI7
I1
I0
tbS'uniform'
tRp13
sS'algorithm'
p14
g1
(g2
(S'S5'
I0
I1
tRp15
(I3
S'|'
NNNI5
I1
I0
tbS'brute'
tRp16
st.(cnumpy.core.multiarray
scalar
p1
(cnumpy
dtype
p2
(S'f8'
I0
I1
tRp3
(I3
S'<'
NNNI-1
I-1
I0
tbS'%+\xe8fX\xbe\xba?'
tRp4
g1
(g3
S'\xbc\xbb\xbb;\x89S\xdf?'
tRp5
(dp6
S'p'
I11
sS'metric'
p7
g1
(g2
(S'S9'
I0
I1
tRp8
(I3
S'|'
NNNI9
I1
I0
tbS'minkowski'
tRp9
sS'radius'
p10
F3086.3926170131977
sS'weights'
p11
g1
(g2
(S'S8'
I0
I1
tRp12
(I3
S'|'
NNNI8
I1
I0
tbS'distance'
tRp13
sS'algorithm'
p14
g1
(g2
(S'S5'
I0
I1
tRp15
(I3
S'|'
NNNI5
I1
I0
tbS'brute'
tRp16
st.(cnumpy.core.multiarray
scalar
p1
(cnumpy
dtype
p2
(S'f8'
I0
I1
tRp3
(I3
S'<'
NNNI-1
I-1
I0
tbS'\xd1 \x97\xee\xa2\xe1\xba?'
tRp4
g1
(g3
S'UUUU\xa7;\xdd?'
tRp5
(dp6
S'algorithm'
p7
g1
(g2
(S'S7'
I0
I1
tRp8
(I3
S'|'
NNNI7
I1
I0
tbS'kd_tree'
tRp9
sS'metric'
p10
g1
(g2
(S'S9'
I0
I1
tRp11
(I3
S'|'
NNNI9
I1
I0
tbS'minkowski'
tRp12
sS'p'
I18
sS'radius'
p13
F68.410998043251013
sS'leaf_size'
p14
I37
sS'weights'
p15
g1
(g2
(S'S8'
I0
I1
tRp16
(I3
S'|'
NNNI8
I1
I0
tbS'distance'
tRp17
st.(cnumpy.core.multiarray
scalar
p1
(cnumpy
dtype
p2
(S'f8'
I0
I1
tRp3
(I3
S'<'
NNNI-1
I-1
I0
tbS'~\x0e\xfa\xac\xb0\x0e\xba\xbf'
tRp4
g1
(g3
S'\x9a\x99\x99\x992\xd5\xdc?'
tRp5
(dp6
S'radius'
p7
F6315.1289068688957
sS'metric'
p8
g1
(g2
(S'S9'
I0
I1
tRp9
(I3
S'|'
NNNI9
I1
I0
tbS'chebyshev'
tRp10
sS'weights'
p11
g1
(g2
(S'S7'
I0
I1
tRp12
(I3
S'|'
NNNI7
I1
I0
tbS'uniform'
tRp13
sS'leaf_size'
p14
I44
sS'algorithm'
p15
g1
(g2
(S'S7'
I0
I1
tRp16
(I3
S'|'
NNNI7
I1
I0
tbS'kd_tree'
tRp17
st.(cnumpy.core.multiarray
scalar
p1
(cnumpy
dtype
p2
(S'f8'
I0
I1
tRp3
(I3
S'<'
NNNI-1
I-1
I0
tbS'\x01r\x85\xfc\xb7x\xbc?'
tRp4
g1
(g3
S'""""\xb2\xb4\xb5?'
tRp5
(dp6
S'radius'
p7
F13.604407850430757
sS'metric'
p8
g1
(g2
(S'S9'
I0
I1
tRp9
(I3
S'|'
NNNI9
I1
I0
tbS'manhattan'
tRp10
sS'weights'
p11
g1
(g2
(S'S8'
I0
I1
tRp12
(I3
S'|'
NNNI8
I1
I0
tbS'distance'
tRp13
sS'leaf_size'
p14
I27
sS'algorithm'
p15
g1
(g2
(S'S7'
I0
I1
tRp16
(I3
S'|'
NNNI7
I1
I0
tbS'kd_tree'
tRp17
st.(cnumpy.core.multiarray
scalar
p1
(cnumpy
dtype
p2
(S'f8'
I0
I1
tRp3
(I3
S'<'
NNNI-1
I-1
I0
tbS'~\x0e\xfa\xac\xb0\x0e\xba\xbf'
tRp4
g1
(g3
S'fff\xe6\xe2v\xdf?'
tRp5
(dp6
S'radius'
p7
F72.208926846592647
sS'metric'
p8
g1
(g2
(S'S9'
I0
I1
tRp9
(I3
S'|'
NNNI9
I1
I0
tbS'manhattan'
tRp10
sS'weights'
p11
g1
(g2
(S'S7'
I0
I1
tRp12
(I3
S'|'
NNNI7
I1
I0
tbS'uniform'
tRp13
sS'algorithm'
p14
g1
(g2
(S'S5'
I0
I1
tRp15
(I3
S'|'
NNNI5
I1
I0
tbS'brute'
tRp16
st.(cnumpy.core.multiarray
scalar
p1
(cnumpy
dtype
p2
(S'f8'
I0
I1
tRp3
(I3
S'<'
NNNI-1
I-1
I0
tbS'\x15\xc5\x9f\x0bQ\xd1\xba?'
tRp4
g1
(g3
S'\x00\x00\x00\x00\x14\x88\xde?'
tRp5
(dp6
S'algorithm'
p7
g1
(g2
(S'S9'
I0
I1
tRp8
(I3
S'|'
NNNI9
I1
I0
tbS'ball_tree'
tRp9
sS'metric'
p10
g1
(g2
(S'S9'
I0
I1
tRp11
(I3
S'|'
NNNI9
I1
I0
tbS'minkowski'
tRp12
sS'p'
I10
sS'radius'
p13
F20478.647441740799
sS'leaf_size'
p14
I26
sS'weights'
p15
g1
(g2
(S'S8'
I0
I1
tRp16
(I3
S'|'
NNNI8
I1
I0
tbS'distance'
tRp17
st.(cnumpy.core.multiarray
scalar
p1
(cnumpy
dtype
p2
(S'f8'
I0
I1
tRp3
(I3
S'<'
NNNI-1
I-1
I0
tbS'~\x0e\xfa\xac\xb0\x0e\xba\xbf'
tRp4
g1
(g3
S'\xbc\xbb\xbb;\xeat\xda?'
tRp5
(dp6
S'algorithm'
p7
g1
(g2
(S'S7'
I0
I1
tRp8
(I3
S'|'
NNNI7
I1
I0
tbS'kd_tree'
tRp9
sS'metric'
p10
g1
(g2
(S'S9'
I0
I1
tRp11
(I3
S'|'
NNNI9
I1
I0
tbS'minkowski'
tRp12
sS'p'
I8
sS'radius'
p13
F222.45515640149551
sS'leaf_size'
p14
I38
sS'weights'
p15
g1
(g2
(S'S7'
I0
I1
tRp16
(I3
S'|'
NNNI7
I1
I0
tbS'uniform'
tRp17
st.(cnumpy.core.multiarray
scalar
p1
(cnumpy
dtype
p2
(S'f8'
I0
I1
tRp3
(I3
S'<'
NNNI-1
I-1
I0
tbS'\xd9\x8f\nq\x13\xe7\xba?'
tRp4
g1
(g3
S'\xef\xee\xeens~\xdb?'
tRp5
(dp6
S'algorithm'
p7
g1
(g2
(S'S9'
I0
I1
tRp8
(I3
S'|'
NNNI9
I1
I0
tbS'ball_tree'
tRp9
sS'metric'
p10
g1
(g2
(S'S9'
I0
I1
tRp11
(I3
S'|'
NNNI9
I1
I0
tbS'minkowski'
tRp12
sS'p'
I9
sS'radius'
p13
F6.8719271987682804
sS'leaf_size'
p14
I31
sS'weights'
p15
g1
(g2
(S'S8'
I0
I1
tRp16
(I3
S'|'
NNNI8
I1
I0
tbS'distance'
tRp17
st.(cnumpy.core.multiarray
scalar
p1
(cnumpy
dtype
p2
(S'f8'
I0
I1
tRp3
(I3
S'<'
NNNI-1
I-1
I0
tbS'S\xa1^d\xe4l\xbc?'
tRp4
g1
(g3
S'\xcd\xcc\xccL\xa2h\xdd?'
tRp5
(dp6
S'radius'
p7
F2564.7712805770434
sS'metric'
p8
g1
(g2
(S'S9'
I0
I1
tRp9
(I3
S'|'
NNNI9
I1
I0
tbS'manhattan'
tRp10
sS'weights'
p11
g1
(g2
(S'S8'
I0
I1
tRp12
(I3
S'|'
NNNI8
I1
I0
tbS'distance'
tRp13
sS'leaf_size'
p14
I27
sS'algorithm'
p15
g1
(g2
(S'S7'
I0
I1
tRp16
(I3
S'|'
NNNI7
I1
I0
tbS'kd_tree'
tRp17
st.(cnumpy.core.multiarray
scalar
p1
(cnumpy
dtype
p2
(S'f8'
I0
I1
tRp3
(I3
S'<'
NNNI-1
I-1
I0
tbS'\xf4\x8a\xe2\xa9\xd3\xf2\xba?'
tRp4
g1
(g3
S'\xde\xdd\xdd]\xe1\xe2\xdb?'
tRp5
(dp6
S'radius'
p7
F74.675952659949573
sS'metric'
p8
g1
(g2
(S'S9'
I0
I1
tRp9
(I3
S'|'
NNNI9
I1
I0
tbS'chebyshev'
tRp10
sS'weights'
p11
g1
(g2
(S'S8'
I0
I1
tRp12
(I3
S'|'
NNNI8
I1
I0
tbS'distance'
tRp13
sS'leaf_size'
p14
I20
sS'algorithm'
p15
g1
(g2
(S'S9'
I0
I1
tRp16
(I3
S'|'
NNNI9
I1
I0
tbS'ball_tree'
tRp17
st.(cnumpy.core.multiarray
scalar
p1
(cnumpy
dtype
p2
(S'f8'
I0
I1
tRp3
(I3
S'<'
NNNI-1
I-1
I0
tbS'S\xa1^d\xe4l\xbc?'
tRp4
g1
(g3
S'DDDDj\xa2\xdd?'
tRp5
(dp6
S'radius'
p7
F4965.0470741046702
sS'metric'
p8
g1
(g2
(S'S9'
I0
I1
tRp9
(I3
S'|'
NNNI9
I1
I0
tbS'manhattan'
tRp10
sS'weights'
p11
g1
(g2
(S'S8'
I0
I1
tRp12
(I3
S'|'
NNNI8
I1
I0
tbS'distance'
tRp13
sS'algorithm'
p14
g1
(g2
(S'S5'
I0
I1
tRp15
(I3
S'|'
NNNI5
I1
I0
tbS'brute'
tRp16
st.(cnumpy.core.multiarray
scalar
p1
(cnumpy
dtype
p2
(S'f8'
I0
I1
tRp3
(I3
S'<'
NNNI-1
I-1
I0
tbS'~\x0e\xfa\xac\xb0\x0e\xba\xbf'
tRp4
g1
(g3
S'3333`\xeb\xde?'
tRp5
(dp6
S'p'
I3
sS'metric'
p7
g1
(g2
(S'S9'
I0
I1
tRp8
(I3
S'|'
NNNI9
I1
I0
tbS'minkowski'
tRp9
sS'radius'
p10
F296.1031096625249
sS'weights'
p11
g1
(g2
(S'S7'
I0
I1
tRp12
(I3
S'|'
NNNI7
I1
I0
tbS'uniform'
tRp13
sS'algorithm'
p14
g1
(g2
(S'S5'
I0
I1
tRp15
(I3
S'|'
NNNI5
I1
I0
tbS'brute'
tRp16
st.(cnumpy.core.multiarray
scalar
p1
(cnumpy
dtype
p2
(S'f8'
I0
I1
tRp3
(I3
S'<'
NNNI-1
I-1
I0
tbS'~\x0e\xfa\xac\xb0\x0e\xba\xbf'
tRp4
g1
(g3
S'3333\xca\xbc\xe6?'
tRp5
(dp6
S'p'
I15
sS'metric'
p7
g1
(g2
(S'S9'
I0
I1
tRp8
(I3
S'|'
NNNI9
I1
I0
tbS'minkowski'
tRp9
sS'radius'
p10
F96.027613002914038
sS'weights'
p11
g1
(g2
(S'S7'
I0
I1
tRp12
(I3
S'|'
NNNI7
I1
I0
tbS'uniform'
tRp13
sS'algorithm'
p14
g1
(g2
(S'S5'
I0
I1
tRp15
(I3
S'|'
NNNI5
I1
I0
tbS'brute'
tRp16
st.