(cnumpy.core.multiarray
scalar
p1
(cnumpy
dtype
p2
(S'f8'
I0
I1
tRp3
(I3
S'<'
NNNI-1
I-1
I0
tbS'3\xefc>\x1d5\xdb?'
tRp4
g1
(g3
S'\x9a\x99\x99\x999\xd4\x8b?'
tRp5
(dp6
S'max_features_use_preset'
p7
I01
sS'bootstrap'
p8
I00
sS'max_features_preset'
p9
S'log2'
p10
sS'min_samples_leaf'
p11
I8
sS'n_estimators'
p12
I11
sS'criterion'
p13
g1
(g2
(S'S4'
I0
I1
tRp14
(I3
S'|'
NNNI4
I1
I0
tbS'gini'
tRp15
sS'min_samples_split'
p16
I12
sS'max_depth'
p17
I6
st.(cnumpy.core.multiarray
scalar
p1
(cnumpy
dtype
p2
(S'f8'
I0
I1
tRp3
(I3
S'<'
NNNI-1
I-1
I0
tbS'62\x92\xdd\x88A\xb5?'
tRp4
g1
(g3
S'DDDDD\xff\x85?'
tRp5
(dp6
S'max_features_sample'
p7
F0.29171301715576436
sS'max_features_use_preset'
p8
I00
sS'bootstrap'
p9
I00
sS'min_samples_leaf'
p10
I3
sS'n_estimators'
p11
I11
sS'criterion'
p12
g1
(g2
(S'S7'
I0
I1
tRp13
(I3
S'|'
NNNI7
I1
I0
tbS'entropy'
tRp14
sS'min_samples_split'
p15
I11
sS'max_depth'
p16
I1
st.(cnumpy.core.multiarray
scalar
p1
(cnumpy
dtype
p2
(S'f8'
I0
I1
tRp3
(I3
S'<'
NNNI-1
I-1
I0
tbS'\xa1Y!\xe6\xcb\xbf\xc7?'
tRp4
g1
(g3
S'\xbc\xbb\xbb\xbb+\x83\x87?'
tRp5
(dp6
S'max_features_sample'
p7
F0.27320624132612636
sS'max_features_use_preset'
p8
I00
sS'bootstrap'
p9
I00
sS'min_samples_leaf'
p10
I12
sS'n_estimators'
p11
I10
sS'criterion'
p12
g1
(g2
(S'S4'
I0
I1
tRp13
(I3
S'|'
NNNI4
I1
I0
tbS'gini'
tRp14
sS'min_samples_split'
p15
I2
sS'max_depth'
p16
I2
st.(cnumpy.core.multiarray
scalar
p1
(cnumpy
dtype
p2
(S'f8'
I0
I1
tRp3
(I3
S'<'
NNNI-1
I-1
I0
tbS' \xa8\x830\xec,\xd8?'
tRp4
g1
(g3
S'\xab\xaa\xaa\xaa\xb2n\x91?'
tRp5
(dp6
S'oob_score'
p7
I01
sS'max_features_use_preset'
p8
I01
sS'bootstrap'
p9
I01
sS'max_features_preset'
p10
S'sqrt'
p11
sS'min_samples_leaf'
p12
I4
sS'n_estimators'
p13
I7
sS'criterion'
p14
g1
(g2
(S'S7'
I0
I1
tRp15
(I3
S'|'
NNNI7
I1
I0
tbS'entropy'
tRp16
sS'min_samples_split'
p17
I5
sS'max_depth'
p18
I4
st.(cnumpy.core.multiarray
scalar
p1
(cnumpy
dtype
p2
(S'f8'
I0
I1
tRp3
(I3
S'<'
NNNI-1
I-1
I0
tbS'\xce\x1c\xc2*$U\xd3?'
tRp4
g1
(g3
S'\xab\xaa\xaa\xaaj\x84\x9d?'
tRp5
(dp6
S'max_features_sample'
p7
F0.56720203654107837
sS'max_features_use_preset'
p8
I00
sS'bootstrap'
p9
I00
sS'min_samples_leaf'
p10
I12
sS'n_estimators'
p11
I19
sS'criterion'
p12
g1
(g2
(S'S4'
I0
I1
tRp13
(I3
S'|'
NNNI4
I1
I0
tbS'gini'
tRp14
sS'min_samples_split'
p15
I20
sS'max_depth'
p16
I3
st.(cnumpy.core.multiarray
scalar
p1
(cnumpy
dtype
p2
(S'f8'
I0
I1
tRp3
(I3
S'<'
NNNI-1
I-1
I0
tbS'36\xf9\x13\xfdK\xd5?'
tRp4
g1
(g3
S'\x9a\x99\x99\x99\xe9\xa1\x87?'
tRp5
(dp6
S'oob_score'
p7
I00
sS'max_features_use_preset'
p8
I01
sS'bootstrap'
p9
I01
sS'max_features_preset'
p10
S'sqrt'
p11
sS'min_samples_leaf'
p12
I10
sS'n_estimators'
p13
I8
sS'criterion'
p14
g1
(g2
(S'S7'
I0
I1
tRp15
(I3
S'|'
NNNI7
I1
I0
tbS'entropy'
tRp16
sS'min_samples_split'
p17
I16
sS'max_depth'
p18
I64
st.(cnumpy.core.multiarray
scalar
p1
(cnumpy
dtype
p2
(S'f8'
I0
I1
tRp3
(I3
S'<'
NNNI-1
I-1
I0
tbS't\xa7\xb0\x03a\xa5\xd1?'
tRp4
g1
(g3
S'DDDD\xa4Ix?'
tRp5
(dp6
S'oob_score'
p7
I01
sS'max_features_use_preset'
p8
I01
sS'bootstrap'
p9
I01
sS'max_features_preset'
p10
NsS'min_samples_leaf'
p11
I16
sS'n_estimators'
p12
I3
sS'criterion'
p13
g1
(g2
(S'S4'
I0
I1
tRp14
(I3
S'|'
NNNI4
I1
I0
tbS'gini'
tRp15
sS'min_samples_split'
p16
I12
sS'max_depth'
p17
I83
st.(cnumpy.core.multiarray
scalar
p1
(cnumpy
dtype
p2
(S'f8'
I0
I1
tRp3
(I3
S'<'
NNNI-1
I-1
I0
tbS'S \xe6\xfa4\x91\xdc?'
tRp4
g1
(g3
S'wwww\xe7\xa9\x8c?'
tRp5
(dp6
S'max_features_use_preset'
p7
I01
sS'bootstrap'
p8
I00
sS'max_features_preset'
p9
NsS'min_samples_leaf'
p10
I4
sS'n_estimators'
p11
I8
sS'criterion'
p12
g1
(g2
(S'S7'
I0
I1
tRp13
(I3
S'|'
NNNI7
I1
I0
tbS'entropy'
tRp14
sS'min_samples_split'
p15
I20
sS'max_depth'
p16
I23
st.(cnumpy.core.multiarray
scalar
p1
(cnumpy
dtype
p2
(S'f8'
I0
I1
tRp3
(I3
S'<'
NNNI-1
I-1
I0
tbS'Z!\xe7\x18\xb1\x95\xd5?'
tRp4
g1
(g3
S'\x11\x11\x11\x11q\x1d\x81?'
tRp5
(dp6
S'max_features_use_preset'
p7
I01
sS'bootstrap'
p8
I00
sS'max_features_preset'
p9
NsS'min_samples_leaf'
p10
I16
sS'n_estimators'
p11
I5
sS'criterion'
p12
g1
(g2
(S'S4'
I0
I1
tRp13
(I3
S'|'
NNNI4
I1
I0
tbS'gini'
tRp14
sS'min_samples_split'
p15
I12
sS'max_depth'
p16
I21
st.(cnumpy.core.multiarray
scalar
p1
(cnumpy
dtype
p2
(S'f8'
I0
I1
tRp3
(I3
S'<'
NNNI-1
I-1
I0
tbS'~\x87\x05\x0e7p\xda?'
tRp4
g1
(g3
S'""""J\x8f\xa5?'
tRp5
(dp6
S'max_features_use_preset'
p7
I01
sS'bootstrap'
p8
I00
sS'max_features_preset'
p9
S'log2'
p10
sS'min_samples_leaf'
p11
I4
sS'n_estimators'
p12
I19
sS'criterion'
p13
g1
(g2
(S'S7'
I0
I1
tRp14
(I3
S'|'
NNNI7
I1
I0
tbS'entropy'
tRp15
sS'min_samples_split'
p16
I18
sS'max_depth'
p17
I21
st.(cnumpy.core.multiarray
scalar
p1
(cnumpy
dtype
p2
(S'f8'
I0
I1
tRp3
(I3
S'<'
NNNI-1
I-1
I0
tbS'\xd0\xda3]\x0c\x8e\xd6?'
tRp4
g1
(g3
S'3333\xf3(n?'
tRp5
(dp6
S'oob_score'
p7
I00
sS'max_features_use_preset'
p8
I01
sS'bootstrap'
p9
I01
sS'max_features_preset'
p10
NsS'min_samples_leaf'
p11
I11
sS'n_estimators'
p12
I2
sS'criterion'
p13
g1
(g2
(S'S4'
I0
I1
tRp14
(I3
S'|'
NNNI4
I1
I0
tbS'gini'
tRp15
sS'min_samples_split'
p16
I6
sS'max_depth'
p17
I16
st.(cnumpy.core.multiarray
scalar
p1
(cnumpy
dtype
p2
(S'f8'
I0
I1
tRp3
(I3
S'<'
NNNI-1
I-1
I0
tbS'\xdf\xde\\\xd1\xe3\x13\xd4?'
tRp4
g1
(g3
S'\xde\xdd\xdd\xdd]\x06m?'
tRp5
(dp6
S'max_features_use_preset'
p7
I01
sS'bootstrap'
p8
I00
sS'max_features_preset'
p9
S'log2'
p10
sS'min_samples_leaf'
p11
I19
sS'n_estimators'
p12
I2
sS'criterion'
p13
g1
(g2
(S'S4'
I0
I1
tRp14
(I3
S'|'
NNNI4
I1
I0
tbS'gini'
tRp15
sS'min_samples_split'
p16
I4
sS'max_depth'
p17
I7
st.(cnumpy.core.multiarray
scalar
p1
(cnumpy
dtype
p2
(S'f8'
I0
I1
tRp3
(I3
S'<'
NNNI-1
I-1
I0
tbS'\xdeo\xac+Ad\xd9?'
tRp4
g1
(g3
S'UUUUE\x05\x88?'
tRp5
(dp6
S'max_features_use_preset'
p7
I01
sS'bootstrap'
p8
I00
sS'max_features_preset'
p9
NsS'min_samples_leaf'
p10
I13
sS'n_estimators'
p11
I7
sS'criterion'
p12
g1
(g2
(S'S7'
I0
I1
tRp13
(I3
S'|'
NNNI7
I1
I0
tbS'entropy'
tRp14
sS'min_samples_split'
p15
I12
sS'max_depth'
p16
I120
st.(cnumpy.core.multiarray
scalar
p1
(cnumpy
dtype
p2
(S'f8'
I0
I1
tRp3
(I3
S'<'
NNNI-1
I-1
I0
tbS'\xc2<\x87g+\x8e\xc7?'
tRp4
g1
(g3
S'\xde\xdd\xdd\xdd5F\x95?'
tRp5
(dp6
S'max_features_use_preset'
p7
I01
sS'bootstrap'
p8
I00
sS'max_features_preset'
p9
S'log2'
p10
sS'min_samples_leaf'
p11
I20
sS'n_estimators'
p12
I18
sS'criterion'
p13
g1
(g2
(S'S7'
I0
I1
tRp14
(I3
S'|'
NNNI7
I1
I0
tbS'entropy'
tRp15
sS'min_samples_split'
p16
I20
sS'max_depth'
p17
I2
st.(cnumpy.core.multiarray
scalar
p1
(cnumpy
dtype
p2
(S'f8'
I0
I1
tRp3
(I3
S'<'
NNNI-1
I-1
I0
tbS'\xbf\xf7\xee\x13f\xa6\xd3?'
tRp4
g1
(g3
S'""""b\xd7\x87?'
tRp5
(dp6
S'max_features_sample'
p7
F0.66538803264168278
sS'max_features_use_preset'
p8
I00
sS'bootstrap'
p9
I00
sS'min_samples_leaf'
p10
I17
sS'n_estimators'
p11
I8
sS'criterion'
p12
g1
(g2
(S'S4'
I0
I1
tRp13
(I3
S'|'
NNNI4
I1
I0
tbS'gini'
tRp14
sS'min_samples_split'
p15
I9
sS'max_depth'
p16
I96
st.(cnumpy.core.multiarray
scalar
p1
(cnumpy
dtype
p2
(S'f8'
I0
I1
tRp3
(I3
S'<'
NNNI-1
I-1
I0
tbS'\n\xae\x05\xb2L&\xe0?'
tRp4
g1
(g3
S'\x89\x88\x88\x88\x08\x87p?'
tRp5
(dp6
S'oob_score'
p7
I00
sS'max_features_use_preset'
p8
I01
sS'bootstrap'
p9
I01
sS'max_features_preset'
p10
NsS'min_samples_leaf'
p11
I2
sS'n_estimators'
p12
I2
sS'criterion'
p13
g1
(g2
(S'S7'
I0
I1
tRp14
(I3
S'|'
NNNI7
I1
I0
tbS'entropy'
tRp15
sS'min_samples_split'
p16
I9
sS'max_depth'
p17
I24
st.(cnumpy.core.multiarray
scalar
p1
(cnumpy
dtype
p2
(S'f8'
I0
I1
tRp3
(I3
S'<'
NNNI-1
I-1
I0
tbS'\x8c\x84z\x06I\xf1\xd7?'
tRp4
g1
(g3
S'""""B\xb7\x82?'
tRp5
(dp6
S'oob_score'
p7
I00
sS'max_features_use_preset'
p8
I00
sS'bootstrap'
p9
I01
sS'max_features_sample'
p10
F0.81875384509352955
sS'min_samples_leaf'
p11
I9
sS'n_estimators'
p12
I6
sS'criterion'
p13
g1
(g2
(S'S7'
I0
I1
tRp14
(I3
S'|'
NNNI7
I1
I0
tbS'entropy'
tRp15
sS'min_samples_split'
p16
I7
sS'max_depth'
p17
I5
st.(cnumpy.core.multiarray
scalar
p1
(cnumpy
dtype
p2
(S'f8'
I0
I1
tRp3
(I3
S'<'
NNNI-1
I-1
I0
tbS'\x93\xad\x85\xd9\xe1\x04\xd9?'
tRp4
g1
(g3
S'""""\xa2\xf8\x98?'
tRp5
(dp6
S'oob_score'
p7
I00
sS'max_features_use_preset'
p8
I00
sS'bootstrap'
p9
I01
sS'max_features_sample'
p10
F0.54781197363494183
sS'min_samples_leaf'
p11
I7
sS'n_estimators'
p12
I19
sS'criterion'
p13
g1
(g2
(S'S7'
I0
I1
tRp14
(I3
S'|'
NNNI7
I1
I0
tbS'entropy'
tRp15
sS'min_samples_split'
p16
I13
sS'max_depth'
p17
I104
st.(cnumpy.core.multiarray
scalar
p1
(cnumpy
dtype
p2
(S'f8'
I0
I1
tRp3
(I3
S'<'
NNNI-1
I-1
I0
tbS"\x0b'\xec\xb4ON\xd3?"
tRp4
g1
(g3
S'\x00\x00\x00\x00\xac\xec\xa3?'
tRp5
(dp6
S'max_features_use_preset'
p7
I01
sS'bootstrap'
p8
I00
sS'max_features_preset'
p9
S'log2'
p10
sS'min_samples_leaf'
p11
I17
sS'n_estimators'
p12
I18
sS'criterion'
p13
g1
(g2
(S'S4'
I0
I1
tRp14
(I3
S'|'
NNNI4
I1
I0
tbS'gini'
tRp15
sS'min_samples_split'
p16
I20
sS'max_depth'
p17
I19
st.(cnumpy.core.multiarray
scalar
p1
(cnumpy
dtype
p2
(S'f8'
I0
I1
tRp3
(I3
S'<'
NNNI-1
I-1
I0
tbS'\xbe\x9a\x96\xbd\xc2S\xd5?'
tRp4
g1
(g3
S'wwww\xaf\xd3\x9c?'
tRp5
(dp6
S'max_features_sample'
p7
F0.98854447604345597
sS'max_features_use_preset'
p8
I00
sS'bootstrap'
p9
I00
sS'min_samples_leaf'
p10
I17
sS'n_estimators'
p11
I20
sS'criterion'
p12
g1
(g2
(S'S4'
I0
I1
tRp13
(I3
S'|'
NNNI4
I1
I0
tbS'gini'
tRp14
sS'min_samples_split'
p15
I20
sS'max_depth'
p16
I21
st.(cnumpy.core.multiarray
scalar
p1
(cnumpy
dtype
p2
(S'f8'
I0
I1
tRp3
(I3
S'<'
NNNI-1
I-1
I0
tbS'\xd2va\x92\x9c|\xc7?'
tRp4
g1
(g3
S'\x89\x88\x88\x88\xc0+\x91?'
tRp5
(dp6
S'max_features_sample'
p7
F0.40091330138762848
sS'max_features_use_preset'
p8
I00
sS'bootstrap'
p9
I00
sS'min_samples_leaf'
p10
I13
sS'n_estimators'
p11
I15
sS'criterion'
p12
g1
(g2
(S'S4'
I0
I1
tRp13
(I3
S'|'
NNNI4
I1
I0
tbS'gini'
tRp14
sS'min_samples_split'
p15
I16
sS'max_depth'
p16
I2
st.(cnumpy.core.multiarray
scalar
p1
(cnumpy
dtype
p2
(S'f8'
I0
I1
tRp3
(I3
S'<'
NNNI-1
I-1
I0
tbS'\xd71\x1e\x7f\x8a\x12\xb5?'
tRp4
g1
(g3
S'UUUU]\x9b\x91?'
tRp5
(dp6
S'oob_score'
p7
I00
sS'max_features_use_preset'
p8
I00
sS'bootstrap'
p9
I01
sS'max_features_sample'
p10
F0.4096560910268795
sS'min_samples_leaf'
p11
I16
sS'n_estimators'
p12
I15
sS'criterion'
p13
g1
(g2
(S'S7'
I0
I1
tRp14
(I3
S'|'
NNNI7
I1
I0
tbS'entropy'
tRp15
sS'min_samples_split'
p16
I12
sS'max_depth'
p17
I1
st.(cnumpy.core.multiarray
scalar
p1
(cnumpy
dtype
p2
(S'f8'
I0
I1
tRp3
(I3
S'<'
NNNI-1
I-1
I0
tbS'\x12b\x15\x92(\x10\xe0?'
tRp4
g1
(g3
S'\x89\x88\x88\x88\xb0\xcb\x97?'
tRp5
(dp6
S'max_features_use_preset'
p7
I01
sS'bootstrap'
p8
I00
sS'max_features_preset'
p9
S'sqrt'
p10
sS'min_samples_leaf'
p11
I2
sS'n_estimators'
p12
I16
sS'criterion'
p13
g1
(g2
(S'S4'
I0
I1
tRp14
(I3
S'|'
NNNI4
I1
I0
tbS'gini'
tRp15
sS'min_samples_split'
p16
I8
sS'max_depth'
p17
I77
st.(cnumpy.core.multiarray
scalar
p1
(cnumpy
dtype
p2
(S'f8'
I0
I1
tRp3
(I3
S'<'
NNNI-1
I-1
I0
tbS'\x06\x8d\xe9g\xfc\xfc\xd7?'
tRp4
g1
(g3
S'\xbc\xbb\xbb\xbb{\xd6\x8c?'
tRp5
(dp6
S'oob_score'
p7
I00
sS'max_features_use_preset'
p8
I01
sS'bootstrap'
p9
I01
sS'max_features_preset'
p10
S'log2'
p11
sS'min_samples_leaf'
p12
I8
sS'n_estimators'
p13
I10
sS'criterion'
p14
g1
(g2
(S'S7'
I0
I1
tRp15
(I3
S'|'
NNNI7
I1
I0
tbS'entropy'
tRp16
sS'min_samples_split'
p17
I4
sS'max_depth'
p18
I15
st.(cnumpy.core.multiarray
scalar
p1
(cnumpy
dtype
p2
(S'f8'
I0
I1
tRp3
(I3
S'<'
NNNI-1
I-1
I0
tbS'\n5\xf0\x10\x8b2\xd3?'
tRp4
g1
(g3
S'\x00\x00\x00\x00\x00\xb1s?'
tRp5
(dp6
S'oob_score'
p7
I00
sS'max_features_use_preset'
p8
I01
sS'bootstrap'
p9
I01
sS'max_features_preset'
p10
S'log2'
p11
sS'min_samples_leaf'
p12
I13
sS'n_estimators'
p13
I3
sS'criterion'
p14
g1
(g2
(S'S7'
I0
I1
tRp15
(I3
S'|'
NNNI7
I1
I0
tbS'entropy'
tRp16
sS'min_samples_split'
p17
I6
sS'max_depth'
p18
I4
st.(cnumpy.core.multiarray
scalar
p1
(cnumpy
dtype
p2
(S'f8'
I0
I1
tRp3
(I3
S'<'
NNNI-1
I-1
I0
tbS'\xaeAMw\r\\\xdc?'
tRp4
g1
(g3
S'\xab\xaa\xaa\xaaj\xb4n?'
tRp5
(dp6
S'oob_score'
p7
I00
sS'max_features_use_preset'
p8
I01
sS'bootstrap'
p9
I01
sS'max_features_preset'
p10
S'sqrt'
p11
sS'min_samples_leaf'
p12
I4
sS'n_estimators'
p13
I2
sS'criterion'
p14
g1
(g2
(S'S7'
I0
I1
tRp15
(I3
S'|'
NNNI7
I1
I0
tbS'entropy'
tRp16
sS'min_samples_split'
p17
I6
sS'max_depth'
p18
I8
st.(cnumpy.core.multiarray
scalar
p1
(cnumpy
dtype
p2
(S'f8'
I0
I1
tRp3
(I3
S'<'
NNNI-1
I-1
I0
tbS'\xc4\xa7a\x8cx"\xd5?'
tRp4
g1
(g3
S'wwww\xb7C{?'
tRp5
(dp6
S'max_features_sample'
p7
F0.46571938640865573
sS'max_features_use_preset'
p8
I00
sS'bootstrap'
p9
I00
sS'min_samples_leaf'
p10
I11
sS'n_estimators'
p11
I5
sS'criterion'
p12
g1
(g2
(S'S7'
I0
I1
tRp13
(I3
S'|'
NNNI7
I1
I0
tbS'entropy'
tRp14
sS'min_samples_split'
p15
I13
sS'max_depth'
p16
I78
st.