(lp1
(dp2
S'max_features_use_preset'
p3
I01
sS'bootstrap'
p4
I00
sS'max_features_preset'
p5
S'log2'
p6
sS'min_samples_leaf'
p7
I8
sS'n_estimators'
p8
I11
sS'criterion'
p9
cnumpy.core.multiarray
scalar
p10
(cnumpy
dtype
p11
(S'S4'
I0
I1
tRp12
(I3
S'|'
NNNI4
I1
I0
tbS'gini'
tRp13
sS'min_samples_split'
p14
I12
sS'max_depth'
p15
I6
sa(dp16
S'max_features_use_preset'
p17
I01
sS'bootstrap'
p18
I00
sS'max_features_preset'
p19
S'log2'
p20
sS'min_samples_leaf'
p21
I19
sS'n_estimators'
p22
I2
sS'criterion'
p23
g10
(g11
(S'S4'
I0
I1
tRp24
(I3
S'|'
NNNI4
I1
I0
tbS'gini'
tRp25
sS'min_samples_split'
p26
I4
sS'max_depth'
p27
I7
sa(dp28
S'max_features_use_preset'
p29
I01
sS'bootstrap'
p30
I00
sS'max_features_preset'
p31
S'log2'
p32
sS'min_samples_leaf'
p33
I17
sS'n_estimators'
p34
I18
sS'criterion'
p35
g10
(g11
(S'S4'
I0
I1
tRp36
(I3
S'|'
NNNI4
I1
I0
tbS'gini'
tRp37
sS'min_samples_split'
p38
I20
sS'max_depth'
p39
I19
sa(dp40
S'max_features_use_preset'
p41
I01
sS'bootstrap'
p42
I00
sS'max_features_preset'
p43
S'sqrt'
p44
sS'min_samples_leaf'
p45
I2
sS'n_estimators'
p46
I16
sS'criterion'
p47
g10
(g11
(S'S4'
I0
I1
tRp48
(I3
S'|'
NNNI4
I1
I0
tbS'gini'
tRp49
sS'min_samples_split'
p50
I8
sS'max_depth'
p51
I77
sa(dp52
S'oob_score'
p53
I01
sS'max_features_use_preset'
p54
I01
sS'bootstrap'
p55
I01
sS'max_features_preset'
p56
NsS'min_samples_leaf'
p57
I16
sS'n_estimators'
p58
I3
sS'criterion'
p59
g10
(g11
(S'S4'
I0
I1
tRp60
(I3
S'|'
NNNI4
I1
I0
tbS'gini'
tRp61
sS'min_samples_split'
p62
I12
sS'max_depth'
p63
I83
sa(dp64
S'oob_score'
p65
I00
sS'max_features_use_preset'
p66
I01
sS'bootstrap'
p67
I01
sS'max_features_preset'
p68
NsS'min_samples_leaf'
p69
I11
sS'n_estimators'
p70
I2
sS'criterion'
p71
g10
(g11
(S'S4'
I0
I1
tRp72
(I3
S'|'
NNNI4
I1
I0
tbS'gini'
tRp73
sS'min_samples_split'
p74
I6
sS'max_depth'
p75
I16
sa(dp76
S'max_features_use_preset'
p77
I01
sS'bootstrap'
p78
I00
sS'max_features_preset'
p79
NsS'min_samples_leaf'
p80
I16
sS'n_estimators'
p81
I5
sS'criterion'
p82
g10
(g11
(S'S4'
I0
I1
tRp83
(I3
S'|'
NNNI4
I1
I0
tbS'gini'
tRp84
sS'min_samples_split'
p85
I12
sS'max_depth'
p86
I21
sa(dp87
S'max_features_sample'
p88
F0.27320624132612636
sS'max_features_use_preset'
p89
I00
sS'bootstrap'
p90
I00
sS'min_samples_leaf'
p91
I12
sS'n_estimators'
p92
I10
sS'criterion'
p93
g10
(g11
(S'S4'
I0
I1
tRp94
(I3
S'|'
NNNI4
I1
I0
tbS'gini'
tRp95
sS'min_samples_split'
p96
I2
sS'max_depth'
p97
I2
sa(dp98
S'max_features_sample'
p99
F0.56720203654107837
sS'max_features_use_preset'
p100
I00
sS'bootstrap'
p101
I00
sS'min_samples_leaf'
p102
I12
sS'n_estimators'
p103
I19
sS'criterion'
p104
g10
(g11
(S'S4'
I0
I1
tRp105
(I3
S'|'
NNNI4
I1
I0
tbS'gini'
tRp106
sS'min_samples_split'
p107
I20
sS'max_depth'
p108
I3
sa(dp109
S'max_features_sample'
p110
F0.66538803264168278
sS'max_features_use_preset'
p111
I00
sS'bootstrap'
p112
I00
sS'min_samples_leaf'
p113
I17
sS'n_estimators'
p114
I8
sS'criterion'
p115
g10
(g11
(S'S4'
I0
I1
tRp116
(I3
S'|'
NNNI4
I1
I0
tbS'gini'
tRp117
sS'min_samples_split'
p118
I9
sS'max_depth'
p119
I96
sa(dp120
S'max_features_sample'
p121
F0.98854447604345597
sS'max_features_use_preset'
p122
I00
sS'bootstrap'
p123
I00
sS'min_samples_leaf'
p124
I17
sS'n_estimators'
p125
I20
sS'criterion'
p126
g10
(g11
(S'S4'
I0
I1
tRp127
(I3
S'|'
NNNI4
I1
I0
tbS'gini'
tRp128
sS'min_samples_split'
p129
I20
sS'max_depth'
p130
I21
sa(dp131
S'max_features_sample'
p132
F0.40091330138762848
sS'max_features_use_preset'
p133
I00
sS'bootstrap'
p134
I00
sS'min_samples_leaf'
p135
I13
sS'n_estimators'
p136
I15
sS'criterion'
p137
g10
(g11
(S'S4'
I0
I1
tRp138
(I3
S'|'
NNNI4
I1
I0
tbS'gini'
tRp139
sS'min_samples_split'
p140
I16
sS'max_depth'
p141
I2
sa(dp142
S'oob_score'
p143
I00
sS'max_features_use_preset'
p144
I01
sS'bootstrap'
p145
I01
sS'max_features_preset'
p146
S'log2'
p147
sS'min_samples_leaf'
p148
I8
sS'n_estimators'
p149
I10
sS'criterion'
p150
g10
(g11
(S'S7'
I0
I1
tRp151
(I3
S'|'
NNNI7
I1
I0
tbS'entropy'
tRp152
sS'min_samples_split'
p153
I4
sS'max_depth'
p154
I15
sa(dp155
S'oob_score'
p156
I00
sS'max_features_use_preset'
p157
I01
sS'bootstrap'
p158
I01
sS'max_features_preset'
p159
S'log2'
p160
sS'min_samples_leaf'
p161
I13
sS'n_estimators'
p162
I3
sS'criterion'
p163
g10
(g11
(S'S7'
I0
I1
tRp164
(I3
S'|'
NNNI7
I1
I0
tbS'entropy'
tRp165
sS'min_samples_split'
p166
I6
sS'max_depth'
p167
I4
sa(dp168
S'max_features_use_preset'
p169
I01
sS'bootstrap'
p170
I00
sS'max_features_preset'
p171
S'log2'
p172
sS'min_samples_leaf'
p173
I4
sS'n_estimators'
p174
I19
sS'criterion'
p175
g10
(g11
(S'S7'
I0
I1
tRp176
(I3
S'|'
NNNI7
I1
I0
tbS'entropy'
tRp177
sS'min_samples_split'
p178
I18
sS'max_depth'
p179
I21
sa(dp180
S'max_features_use_preset'
p181
I01
sS'bootstrap'
p182
I00
sS'max_features_preset'
p183
S'log2'
p184
sS'min_samples_leaf'
p185
I20
sS'n_estimators'
p186
I18
sS'criterion'
p187
g10
(g11
(S'S7'
I0
I1
tRp188
(I3
S'|'
NNNI7
I1
I0
tbS'entropy'
tRp189
sS'min_samples_split'
p190
I20
sS'max_depth'
p191
I2
sa(dp192
S'oob_score'
p193
I01
sS'max_features_use_preset'
p194
I01
sS'bootstrap'
p195
I01
sS'max_features_preset'
p196
S'sqrt'
p197
sS'min_samples_leaf'
p198
I4
sS'n_estimators'
p199
I7
sS'criterion'
p200
g10
(g11
(S'S7'
I0
I1
tRp201
(I3
S'|'
NNNI7
I1
I0
tbS'entropy'
tRp202
sS'min_samples_split'
p203
I5
sS'max_depth'
p204
I4
sa(dp205
S'oob_score'
p206
I00
sS'max_features_use_preset'
p207
I01
sS'bootstrap'
p208
I01
sS'max_features_preset'
p209
S'sqrt'
p210
sS'min_samples_leaf'
p211
I10
sS'n_estimators'
p212
I8
sS'criterion'
p213
g10
(g11
(S'S7'
I0
I1
tRp214
(I3
S'|'
NNNI7
I1
I0
tbS'entropy'
tRp215
sS'min_samples_split'
p216
I16
sS'max_depth'
p217
I64
sa(dp218
S'oob_score'
p219
I00
sS'max_features_use_preset'
p220
I01
sS'bootstrap'
p221
I01
sS'max_features_preset'
p222
S'sqrt'
p223
sS'min_samples_leaf'
p224
I4
sS'n_estimators'
p225
I2
sS'criterion'
p226
g10
(g11
(S'S7'
I0
I1
tRp227
(I3
S'|'
NNNI7
I1
I0
tbS'entropy'
tRp228
sS'min_samples_split'
p229
I6
sS'max_depth'
p230
I8
sa(dp231
S'oob_score'
p232
I00
sS'max_features_use_preset'
p233
I01
sS'bootstrap'
p234
I01
sS'max_features_preset'
p235
NsS'min_samples_leaf'
p236
I2
sS'n_estimators'
p237
I2
sS'criterion'
p238
g10
(g11
(S'S7'
I0
I1
tRp239
(I3
S'|'
NNNI7
I1
I0
tbS'entropy'
tRp240
sS'min_samples_split'
p241
I9
sS'max_depth'
p242
I24
sa(dp243
S'max_features_use_preset'
p244
I01
sS'bootstrap'
p245
I00
sS'max_features_preset'
p246
NsS'min_samples_leaf'
p247
I4
sS'n_estimators'
p248
I8
sS'criterion'
p249
g10
(g11
(S'S7'
I0
I1
tRp250
(I3
S'|'
NNNI7
I1
I0
tbS'entropy'
tRp251
sS'min_samples_split'
p252
I20
sS'max_depth'
p253
I23
sa(dp254
S'max_features_use_preset'
p255
I01
sS'bootstrap'
p256
I00
sS'max_features_preset'
p257
NsS'min_samples_leaf'
p258
I13
sS'n_estimators'
p259
I7
sS'criterion'
p260
g10
(g11
(S'S7'
I0
I1
tRp261
(I3
S'|'
NNNI7
I1
I0
tbS'entropy'
tRp262
sS'min_samples_split'
p263
I12
sS'max_depth'
p264
I120
sa(dp265
S'oob_score'
p266
I00
sS'max_features_use_preset'
p267
I00
sS'bootstrap'
p268
I01
sS'max_features_sample'
p269
F0.81875384509352955
sS'min_samples_leaf'
p270
I9
sS'n_estimators'
p271
I6
sS'criterion'
p272
g10
(g11
(S'S7'
I0
I1
tRp273
(I3
S'|'
NNNI7
I1
I0
tbS'entropy'
tRp274
sS'min_samples_split'
p275
I7
sS'max_depth'
p276
I5
sa(dp277
S'oob_score'
p278
I00
sS'max_features_use_preset'
p279
I00
sS'bootstrap'
p280
I01
sS'max_features_sample'
p281
F0.54781197363494183
sS'min_samples_leaf'
p282
I7
sS'n_estimators'
p283
I19
sS'criterion'
p284
g10
(g11
(S'S7'
I0
I1
tRp285
(I3
S'|'
NNNI7
I1
I0
tbS'entropy'
tRp286
sS'min_samples_split'
p287
I13
sS'max_depth'
p288
I104
sa(dp289
S'oob_score'
p290
I00
sS'max_features_use_preset'
p291
I00
sS'bootstrap'
p292
I01
sS'max_features_sample'
p293
F0.4096560910268795
sS'min_samples_leaf'
p294
I16
sS'n_estimators'
p295
I15
sS'criterion'
p296
g10
(g11
(S'S7'
I0
I1
tRp297
(I3
S'|'
NNNI7
I1
I0
tbS'entropy'
tRp298
sS'min_samples_split'
p299
I12
sS'max_depth'
p300
I1
sa(dp301
S'max_features_sample'
p302
F0.29171301715576436
sS'max_features_use_preset'
p303
I00
sS'bootstrap'
p304
I00
sS'min_samples_leaf'
p305
I3
sS'n_estimators'
p306
I11
sS'criterion'
p307
g10
(g11
(S'S7'
I0
I1
tRp308
(I3
S'|'
NNNI7
I1
I0
tbS'entropy'
tRp309
sS'min_samples_split'
p310
I11
sS'max_depth'
p311
I1
sa(dp312
S'max_features_sample'
p313
F0.46571938640865573
sS'max_features_use_preset'
p314
I00
sS'bootstrap'
p315
I00
sS'min_samples_leaf'
p316
I11
sS'n_estimators'
p317
I5
sS'criterion'
p318
g10
(g11
(S'S7'
I0
I1
tRp319
(I3
S'|'
NNNI7
I1
I0
tbS'entropy'
tRp320
sS'min_samples_split'
p321
I13
sS'max_depth'
p322
I78
sa.