(cnumpy.core.multiarray
scalar
p1
(cnumpy
dtype
p2
(S'f8'
I0
I1
tRp3
(I3
S'<'
NNNI-1
I-1
I0
tbS'\x80\x89z\xa3w\x94\xe4?'
tRp4
g1
(g3
S'ffff\xb6\xa5\x8a?'
tRp5
(dp6
S'kernel'
p7
g1
(g2
(S'S6'
I0
I1
tRp8
(I3
S'|'
NNNI6
I1
I0
tbS'linear'
tRp9
sS'C'
F0.003921095781703644
sS'shrinking'
p10
I01
sS'tol'
p11
F0.0052931005636087129
sS'class_weight'
p12
Nst.(cnumpy.core.multiarray
scalar
p1
(cnumpy
dtype
p2
(S'f8'
I0
I1
tRp3
(I3
S'<'
NNNI-1
I-1
I0
tbS'\xda\x99\xc7\x83\xa9E\xe2?'
tRp4
g1
(g3
S'\xcd\xcc\xcc\xccl\x8d\xa3?'
tRp5
(dp6
S'kernel'
p7
g1
(g2
(S'S3'
I0
I1
tRp8
(I3
S'|'
NNNI3
I1
I0
tbS'rbf'
tRp9
sS'C'
F3.0390885231530524
sS'tol'
p10
F0.0041047632686634118
sS'shrinking'
p11
I00
sS'gamma'
p12
F0.73432461459489518
sS'class_weight'
p13
Nst.(cnumpy.core.multiarray
scalar
p1
(cnumpy
dtype
p2
(S'f8'
I0
I1
tRp3
(I3
S'<'
NNNI-1
I-1
I0
tbS'\x15v\xf11\xb8D\xe6?'
tRp4
g1
(g3
S'\xbc\xbb\xbb\xbb\xbb\x19\x8a?'
tRp5
(dp6
S'kernel'
p7
g1
(g2
(S'S6'
I0
I1
tRp8
(I3
S'|'
NNNI6
I1
I0
tbS'linear'
tRp9
sS'C'
F5.9823304677034885
sS'shrinking'
p10
I00
sS'tol'
p11
F0.011285294166281703
sS'class_weight'
p12
S'auto'
p13
st.(cnumpy.core.multiarray
scalar
p1
(cnumpy
dtype
p2
(S'f8'
I0
I1
tRp3
(I3
S'<'
NNNI-1
I-1
I0
tbS'R\x8f\x9f\xe3\x87\x0f\xa9\xbf'
tRp4
g1
(g3
S'3333\xe3w\xa5?'
tRp5
(dp6
S'kernel'
p7
g1
(g2
(S'S3'
I0
I1
tRp8
(I3
S'|'
NNNI3
I1
I0
tbS'rbf'
tRp9
sS'C'
F0.010717523428637821
sS'tol'
p10
F0.0047679568962571799
sS'shrinking'
p11
I00
sS'gamma'
p12
F0.22159949886152708
sS'class_weight'
p13
S'auto'
p14
st.(cnumpy.core.multiarray
scalar
p1
(cnumpy
dtype
p2
(S'f8'
I0
I1
tRp3
(I3
S'<'
NNNI-1
I-1
I0
tbS"\xbe'v\x07\xe1H\xe7?"
tRp4
g1
(g3
S'\xcd\xcc\xcc\xccL&\x91?'
tRp5
(dp6
S'kernel'
p7
g1
(g2
(S'S4'
I0
I1
tRp8
(I3
S'|'
NNNI4
I1
I0
tbS'poly'
tRp9
sS'C'
F0.0010872265962003605
sS'degree'
p10
I3
sS'coef0'
p11
F0.11298684251968683
sS'tol'
p12
F0.0075244877854258457
sS'shrinking'
p13
I00
sS'gamma'
p14
F0.48296846138187499
sS'class_weight'
p15
Nst.(cnumpy.core.multiarray
scalar
p1
(cnumpy
dtype
p2
(S'f8'
I0
I1
tRp3
(I3
S'<'
NNNI-1
I-1
I0
tbS'\xbd\xbd}\xd3\xfc\xeb\xbe?'
tRp4
g1
(g3
S'\xab\xaa\xaa\xaaj\xec\xa1?'
tRp5
(dp6
S'kernel'
p7
g1
(g2
(S'S3'
I0
I1
tRp8
(I3
S'|'
NNNI3
I1
I0
tbS'rbf'
tRp9
sS'C'
F0.0254559652822842
sS'tol'
p10
F0.0028342175317249288
sS'shrinking'
p11
I00
sS'gamma'
p12
F0.62883041245212579
sS'class_weight'
p13
Nst.(cnumpy.core.multiarray
scalar
p1
(cnumpy
dtype
p2
(S'f8'
I0
I1
tRp3
(I3
S'<'
NNNI-1
I-1
I0
tbS'\x1d\xdc\xacb\xdf\xe9\xe5?'
tRp4
g1
(g3
S'3333\xab\xca\x9a?'
tRp5
(dp6
S'kernel'
p7
g1
(g2
(S'S4'
I0
I1
tRp8
(I3
S'|'
NNNI4
I1
I0
tbS'poly'
tRp9
sS'C'
F6758.561106325099
sS'degree'
p10
I5
sS'coef0'
p11
F0.0040372182597100403
sS'tol'
p12
F0.0057345291465055181
sS'shrinking'
p13
I01
sS'gamma'
p14
F0.35169917256922967
sS'class_weight'
p15
Nst.(cnumpy.core.multiarray
scalar
p1
(cnumpy
dtype
p2
(S'f8'
I0
I1
tRp3
(I3
S'<'
NNNI-1
I-1
I0
tbS'"\x04\x7fu\x1c\xca\xe5?'
tRp4
g1
(g3
S'UUUU\x92|\xcc?'
tRp5
(dp6
S'kernel'
p7
g1
(g2
(S'S6'
I0
I1
tRp8
(I3
S'|'
NNNI6
I1
I0
tbS'linear'
tRp9
sS'C'
F233.29248153257251
sS'shrinking'
p10
I00
sS'tol'
p11
F0.0049063061178736371
sS'class_weight'
p12
S'auto'
p13
st.(cnumpy.core.multiarray
scalar
p1
(cnumpy
dtype
p2
(S'f8'
I0
I1
tRp3
(I3
S'<'
NNNI-1
I-1
I0
tbS'O\xe10\xca\x120\xe5?'
tRp4
g1
(g3
S'\x11\x11\x11\x11\x89\xee\x96?'
tRp5
(dp6
S'kernel'
p7
g1
(g2
(S'S3'
I0
I1
tRp8
(I3
S'|'
NNNI3
I1
I0
tbS'rbf'
tRp9
sS'C'
F2.777570170570566
sS'tol'
p10
F0.0058817307092305553
sS'shrinking'
p11
I00
sS'gamma'
p12
F0.20875111214153308
sS'class_weight'
p13
Nst.(cnumpy.core.multiarray
scalar
p1
(cnumpy
dtype
p2
(S'f8'
I0
I1
tRp3
(I3
S'<'
NNNI-1
I-1
I0
tbS'Z\x0c\xb3\x01\r\xc4\xa1\xbf'
tRp4
g1
(g3
S'UUUU\x85\xc6\xa5?'
tRp5
(dp6
S'kernel'
p7
g1
(g2
(S'S3'
I0
I1
tRp8
(I3
S'|'
NNNI3
I1
I0
tbS'rbf'
tRp9
sS'C'
F0.00244097313008037
sS'tol'
p10
F0.013205656702247433
sS'shrinking'
p11
I01
sS'gamma'
p12
F0.28810820454686004
sS'class_weight'
p13
S'auto'
p14
st.(cnumpy.core.multiarray
scalar
p1
(cnumpy
dtype
p2
(S'f8'
I0
I1
tRp3
(I3
S'<'
NNNI-1
I-1
I0
tbS'S\x1c\x17\x85\xec\x81\xe2?'
tRp4
g1
(g3
S'\xbc\xbb\xbb\xbb\x13\x81\x90?'
tRp5
(dp6
S'kernel'
p7
g1
(g2
(S'S6'
I0
I1
tRp8
(I3
S'|'
NNNI6
I1
I0
tbS'linear'
tRp9
sS'C'
F0.019987481620007526
sS'shrinking'
p10
I00
sS'tol'
p11
F0.0031166031159303702
sS'class_weight'
p12
S'auto'
p13
st.(cnumpy.core.multiarray
scalar
p1
(cnumpy
dtype
p2
(S'f8'
I0
I1
tRp3
(I3
S'<'
NNNI-1
I-1
I0
tbS'\xbd\x90\xab\x90\xf4\xd6\xe0?'
tRp4
g1
(g3
S'\xcd\xcc\xcc\xcc,\xe3\x88?'
tRp5
(dp6
S'kernel'
p7
g1
(g2
(S'S6'
I0
I1
tRp8
(I3
S'|'
NNNI6
I1
I0
tbS'linear'
tRp9
sS'C'
F0.0013981838283902439
sS'shrinking'
p10
I01
sS'tol'
p11
F0.012631819960176163
sS'class_weight'
p12
Nst.(cnumpy.core.multiarray
scalar
p1
(cnumpy
dtype
p2
(S'f8'
I0
I1
tRp3
(I3
S'<'
NNNI-1
I-1
I0
tbS'\xc9\xc5\xca\x1d\xdc\x90\xa2\xbf'
tRp4
g1
(g3
S'\xef\xee\xee\xee\xee\x94\xa0?'
tRp5
(dp6
S'kernel'
p7
g1
(g2
(S'S7'
I0
I1
tRp8
(I3
S'|'
NNNI7
I1
I0
tbS'sigmoid'
tRp9
sS'C'
F0.10461512549263641
sS'coef0'
p10
F0.23036859627609496
sS'tol'
p11
F0.0074359183601534883
sS'shrinking'
p12
I00
sS'gamma'
p13
F0.13031520767945282
sS'class_weight'
p14
Nst.(cnumpy.core.multiarray
scalar
p1
(cnumpy
dtype
p2
(S'f8'
I0
I1
tRp3
(I3
S'<'
NNNI-1
I-1
I0
tbS'\x9d\xdc\xad\x9a]"\xab\xbf'
tRp4
g1
(g3
S'\x89\x88\x88\x880@\x96?'
tRp5
(dp6
S'kernel'
p7
g1
(g2
(S'S7'
I0
I1
tRp8
(I3
S'|'
NNNI7
I1
I0
tbS'sigmoid'
tRp9
sS'C'
F139.39121536095044
sS'coef0'
p10
F0.27479750647002998
sS'tol'
p11
F0.0077651680535512817
sS'shrinking'
p12
I01
sS'gamma'
p13
F0.71797496793932791
sS'class_weight'
p14
Nst.(cnumpy.core.multiarray
scalar
p1
(cnumpy
dtype
p2
(S'f8'
I0
I1
tRp3
(I3
S'<'
NNNI-1
I-1
I0
tbS'\x95\x16h\x9aZ\xe2\xe5?'
tRp4
g1
(g3
S'\xbc\xbb\xbb\xbb\x9b\xc0\x85?'
tRp5
(dp6
S'kernel'
p7
g1
(g2
(S'S4'
I0
I1
tRp8
(I3
S'|'
NNNI4
I1
I0
tbS'poly'
tRp9
sS'C'
F0.025414510941297225
sS'degree'
p10
I2
sS'coef0'
p11
F0.34270541917761788
sS'tol'
p12
F0.0054597374219484684
sS'shrinking'
p13
I01
sS'gamma'
p14
F0.20758946160666858
sS'class_weight'
p15
Nst.(cnumpy.core.multiarray
scalar
p1
(cnumpy
dtype
p2
(S'f8'
I0
I1
tRp3
(I3
S'<'
NNNI-1
I-1
I0
tbS'\x00\xba\xda\xcd\xdb\xf7\x98\xbf'
tRp4
g1
(g3
S'""""^.\xb0?'
tRp5
(dp6
S'kernel'
p7
g1
(g2
(S'S3'
I0
I1
tRp8
(I3
S'|'
NNNI3
I1
I0
tbS'rbf'
tRp9
sS'C'
F0.051794951440272644
sS'tol'
p10
F0.0071056880787646335
sS'shrinking'
p11
I00
sS'gamma'
p12
F0.025911568318933598
sS'class_weight'
p13
S'auto'
p14
st.(cnumpy.core.multiarray
scalar
p1
(cnumpy
dtype
p2
(S'f8'
I0
I1
tRp3
(I3
S'<'
NNNI-1
I-1
I0
tbS'\xb7\xbc\xb6r3l\xe8?'
tRp4
g1
(g3
S'\xab\xaa\xaa\xaa\x1a\xc3\x94?'
tRp5
(dp6
S'kernel'
p7
g1
(g2
(S'S3'
I0
I1
tRp8
(I3
S'|'
NNNI3
I1
I0
tbS'rbf'
tRp9
sS'C'
F44.535642093642856
sS'tol'
p10
F0.023215273585347685
sS'shrinking'
p11
I01
sS'gamma'
p12
F0.022083434609424857
sS'class_weight'
p13
S'auto'
p14
st.(cnumpy.core.multiarray
scalar
p1
(cnumpy
dtype
p2
(S'f8'
I0
I1
tRp3
(I3
S'<'
NNNI-1
I-1
I0
tbS'\xdb\xe2C\xee`N\xe6?'
tRp4
g1
(g3
S'""""\x8a\x92\x94?'
tRp5
(dp6
S'kernel'
p7
g1
(g2
(S'S4'
I0
I1
tRp8
(I3
S'|'
NNNI4
I1
I0
tbS'poly'
tRp9
sS'C'
F310.84255795278347
sS'degree'
p10
I5
sS'coef0'
p11
F0.21201763415783959
sS'tol'
p12
F0.011208738362844809
sS'shrinking'
p13
I01
sS'gamma'
p14
F0.76357474274028436
sS'class_weight'
p15
Nst.(cnumpy.core.multiarray
scalar
p1
(cnumpy
dtype
p2
(S'f8'
I0
I1
tRp3
(I3
S'<'
NNNI-1
I-1
I0
tbS"'?\xb3\x13\x86.\xe5?"
tRp4
g1
(g3
S'fff&/\x97\xf3?'
tRp5
(dp6
S'kernel'
p7
g1
(g2
(S'S6'
I0
I1
tRp8
(I3
S'|'
NNNI6
I1
I0
tbS'linear'
tRp9
sS'C'
F1607.1010287295785
sS'shrinking'
p10
I01
sS'tol'
p11
F0.0025591175465495618
sS'class_weight'
p12
Nst.(cnumpy.core.multiarray
scalar
p1
(cnumpy
dtype
p2
(S'f8'
I0
I1
tRp3
(I3
S'<'
NNNI-1
I-1
I0
tbS'\x12\x07k\xd5\xf7\x83\xce?'
tRp4
g1
(g3
S'\xef\xee\xee\xee\xe6\x8b\x91?'
tRp5
(dp6
S'kernel'
p7
g1
(g2
(S'S6'
I0
I1
tRp8
(I3
S'|'
NNNI6
I1
I0
tbS'linear'
tRp9
sS'C'
F0.00040403905813114261
sS'shrinking'
p10
I00
sS'tol'
p11
F0.0048244724707188717
sS'class_weight'
p12
Nst.(cnumpy.core.multiarray
scalar
p1
(cnumpy
dtype
p2
(S'f8'
I0
I1
tRp3
(I3
S'<'
NNNI-1
I-1
I0
tbS'Z\x85|o\xc1\xba\xe7?'
tRp4
g1
(g3
S'\x9a\x99\x99\x99\xa9Y\x90?'
tRp5
(dp6
S'kernel'
p7
g1
(g2
(S'S4'
I0
I1
tRp8
(I3
S'|'
NNNI4
I1
I0
tbS'poly'
tRp9
sS'C'
F371.40817959244043
sS'degree'
p10
I3
sS'coef0'
p11
F0.09116071430031647
sS'tol'
p12
F0.0093352651181077689
sS'shrinking'
p13
I01
sS'gamma'
p14
F0.0072736920867647603
sS'class_weight'
p15
Nst.(cnumpy.core.multiarray
scalar
p1
(cnumpy
dtype
p2
(S'f8'
I0
I1
tRp3
(I3
S'<'
NNNI-1
I-1
I0
tbS'G\x12\xde\x80\x0b\x8c\xe5?'
tRp4
g1
(g3
S'\x00\x00\x00\x00>1\xcd?'
tRp5
(dp6
S'kernel'
p7
g1
(g2
(S'S6'
I0
I1
tRp8
(I3
S'|'
NNNI6
I1
I0
tbS'linear'
tRp9
sS'C'
F209.61308538911183
sS'shrinking'
p10
I01
sS'tol'
p11
F0.0037838557219122106
sS'class_weight'
p12
Nst.(cnumpy.core.multiarray
scalar
p1
(cnumpy
dtype
p2
(S'f8'
I0
I1
tRp3
(I3
S'<'
NNNI-1
I-1
I0
tbS'\\\x19\x8dd\xf69\xa8\xbf'
tRp4
g1
(g3
S'\xcd\xcc\xcc\xccx\xc0\xa9?'
tRp5
(dp6
S'kernel'
p7
g1
(g2
(S'S3'
I0
I1
tRp8
(I3
S'|'
NNNI3
I1
I0
tbS'rbf'
tRp9
sS'C'
F0.029323412723356052
sS'tol'
p10
F0.010971540162552503
sS'shrinking'
p11
I00
sS'gamma'
p12
F0.92052574268958942
sS'class_weight'
p13
S'auto'
p14
st.(cnumpy.core.multiarray
scalar
p1
(cnumpy
dtype
p2
(S'f8'
I0
I1
tRp3
(I3
S'<'
NNNI-1
I-1
I0
tbS'\xc6\n\xcb%\x0b\x87\xae\xbf'
tRp4
g1
(g3
S'\xcd\xcc\xcc\xcc\xdc\x8e\xaa?'
tRp5
(dp6
S'kernel'
p7
g1
(g2
(S'S7'
I0
I1
tRp8
(I3
S'|'
NNNI7
I1
I0
tbS'sigmoid'
tRp9
sS'C'
F0.021049593450054336
sS'coef0'
p10
F0.60141811072019047
sS'tol'
p11
F0.0099441907908053434
sS'shrinking'
p12
I01
sS'gamma'
p13
F0.063263397209204708
sS'class_weight'
p14
S'auto'
p15
st.(cnumpy.core.multiarray
scalar
p1
(cnumpy
dtype
p2
(S'f8'
I0
I1
tRp3
(I3
S'<'
NNNI-1
I-1
I0
tbS'\x03\xf2\xd4\xad\xe3|\xa3\xbf'
tRp4
g1
(g3
S'ffffVj\xa5?'
tRp5
(dp6
S'kernel'
p7
g1
(g2
(S'S7'
I0
I1
tRp8
(I3
S'|'
NNNI7
I1
I0
tbS'sigmoid'
tRp9
sS'C'
F3.9722996606651684
sS'coef0'
p10
F0.55109687896265291
sS'tol'
p11
F0.0077053770472703953
sS'shrinking'
p12
I00
sS'gamma'
p13
F0.31758401788216994
sS'class_weight'
p14
Nst.(cnumpy.core.multiarray
scalar
p1
(cnumpy
dtype
p2
(S'f8'
I0
I1
tRp3
(I3
S'<'
NNNI-1
I-1
I0
tbS'w9\xa8}\xb7n\xe2?'
tRp4
g1
(g3
S'\xef\xee\xee\xee\x9a\x8e\xa5?'
tRp5
(dp6
S'kernel'
p7
g1
(g2
(S'S3'
I0
I1
tRp8
(I3
S'|'
NNNI3
I1
I0
tbS'rbf'
tRp9
sS'C'
F12.091416954315994
sS'tol'
p10
F0.014019461960089194
sS'shrinking'
p11
I01
sS'gamma'
p12
F0.77844309126574618
sS'class_weight'
p13
S'auto'
p14
st.(cnumpy.core.multiarray
scalar
p1
(cnumpy
dtype
p2
(S'f8'
I0
I1
tRp3
(I3
S'<'
NNNI-1
I-1
I0
tbS'\x9fE.U\x82\xe9\xe8?'
tRp4
g1
(g3
S'3333\x9b\x01\x9b?'
tRp5
(dp6
S'kernel'
p7
g1
(g2
(S'S4'
I0
I1
tRp8
(I3
S'|'
NNNI4
I1
I0
tbS'poly'
tRp9
sS'C'
F1.2690623487682713
sS'degree'
p10
I3
sS'coef0'
p11
F0.12628608834817912
sS'tol'
p12
F0.015676196323477241
sS'shrinking'
p13
I01
sS'gamma'
p14
F0.70378237161876478
sS'class_weight'
p15
Nst.(cnumpy.core.multiarray
scalar
p1
(cnumpy
dtype
p2
(S'f8'
I0
I1
tRp3
(I3
S'<'
NNNI-1
I-1
I0
tbS'L\xfcP\x83K\xae\xd3?'
tRp4
g1
(g3
S'\x9a\x99\x99\x99\t \x89?'
tRp5
(dp6
S'kernel'
p7
g1
(g2
(S'S6'
I0
I1
tRp8
(I3
S'|'
NNNI6
I1
I0
tbS'linear'
tRp9
sS'C'
F0.00053296606704769948
sS'shrinking'
p10
I01
sS'tol'
p11
F0.0066624042797890056
sS'class_weight'
p12
Nst.(cnumpy.core.multiarray
scalar
p1
(cnumpy
dtype
p2
(S'f8'
I0
I1
tRp3
(I3
S'<'
NNNI-1
I-1
I0
tbS'\x07_\x91\xd8G\xd2\xe1?'
tRp4
g1
(g3
S'ffffv\x1a\x92?'
tRp5
(dp6
S'kernel'
p7
g1
(g2
(S'S6'
I0
I1
tRp8
(I3
S'|'
NNNI6
I1
I0
tbS'linear'
tRp9
sS'C'
F0.0084423767033271827
sS'shrinking'
p10
I01
sS'tol'
p11
F0.0054500234368910997
sS'class_weight'
p12
S'auto'
p13
st.