(cnumpy.core.multiarray
scalar
p1
(cnumpy
dtype
p2
(S'f8'
I0
I1
tRp3
(I3
S'<'
NNNI-1
I-1
I0
tbS'u\x7f\x91\xce%h\xcc?'
tRp4
g1
(g3
S'UUUU\xbd\xfb\x9c?'
tRp5
(dp6
S'loss'
p7
g1
(g2
(S'S8'
I0
I1
tRp8
(I3
S'|'
NNNI8
I1
I0
tbS'deviance'
tRp9
sS'max_features_use_preset'
p10
I01
sS'learning_rate'
p11
F0.16826845637682064
sS'max_features_preset'
p12
S'log2'
p13
sS'min_samples_leaf'
p14
I20
sS'n_estimators'
p15
I6
sS'min_samples_split'
p16
I5
sS'max_depth'
p17
I5
st.(cnumpy.core.multiarray
scalar
p1
(cnumpy
dtype
p2
(S'f8'
I0
I1
tRp3
(I3
S'<'
NNNI-1
I-1
I0
tbS'qX\x9f9\xc8\xf1\xe2?'
tRp4
g1
(g3
S'\xde\xdd\xdd\xdd\xc9M\xb2?'
tRp5
(dp6
S'loss'
p7
g1
(g2
(S'S8'
I0
I1
tRp8
(I3
S'|'
NNNI8
I1
I0
tbS'deviance'
tRp9
sS'max_features_use_preset'
p10
I01
sS'learning_rate'
p11
F0.38540247310405973
sS'max_features_preset'
p12
S'sqrt'
p13
sS'min_samples_leaf'
p14
I10
sS'n_estimators'
p15
I13
sS'min_samples_split'
p16
I16
sS'max_depth'
p17
I4
st.(cnumpy.core.multiarray
scalar
p1
(cnumpy
dtype
p2
(S'f8'
I0
I1
tRp3
(I3
S'<'
NNNI-1
I-1
I0
tbS'_\x1f^$\x9f(\xe0?'
tRp4
g1
(g3
S'\x11\x11\x11\x11\xc9k\xa7?'
tRp5
(dp6
S'loss'
p7
g1
(g2
(S'S8'
I0
I1
tRp8
(I3
S'|'
NNNI8
I1
I0
tbS'deviance'
tRp9
sS'max_features_use_preset'
p10
I01
sS'learning_rate'
p11
F0.78597698560757401
sS'max_features_preset'
p12
NsS'min_samples_leaf'
p13
I1
sS'n_estimators'
p14
I13
sS'min_samples_split'
p15
I13
sS'max_depth'
p16
I1
st.(cnumpy.core.multiarray
scalar
p1
(cnumpy
dtype
p2
(S'f8'
I0
I1
tRp3
(I3
S'<'
NNNI-1
I-1
I0
tbS'\x17\xfbs\xb4g\x1c\xe5?'
tRp4
g1
(g3
S'\x9a\x99\x99\x99\xd5\xd4\xbf?'
tRp5
(dp6
S'loss'
p7
g1
(g2
(S'S8'
I0
I1
tRp8
(I3
S'|'
NNNI8
I1
I0
tbS'deviance'
tRp9
sS'max_features_sample'
p10
F0.58233101020888856
sS'max_features_use_preset'
p11
I00
sS'learning_rate'
p12
F0.62883041245212579
sS'min_samples_leaf'
p13
I7
sS'n_estimators'
p14
I13
sS'min_samples_split'
p15
I7
sS'max_depth'
p16
I18
st.(cnumpy.core.multiarray
scalar
p1
(cnumpy
dtype
p2
(S'f8'
I0
I1
tRp3
(I3
S'<'
NNNI-1
I-1
I0
tbS'\xd2\x84\xb1\x13F\xa6\xe0?'
tRp4
g1
(g3
S'DDDD\x98\n\xb9?'
tRp5
(dp6
S'loss'
p7
g1
(g2
(S'S8'
I0
I1
tRp8
(I3
S'|'
NNNI8
I1
I0
tbS'deviance'
tRp9
sS'max_features_use_preset'
p10
I01
sS'learning_rate'
p11
F0.35169917256922967
sS'max_features_preset'
p12
S'sqrt'
p13
sS'min_samples_leaf'
p14
I1
sS'n_estimators'
p15
I5
sS'min_samples_split'
p16
I5
sS'max_depth'
p17
I8
st.(cnumpy.core.multiarray
scalar
p1
(cnumpy
dtype
p2
(S'f8'
I0
I1
tRp3
(I3
S'<'
NNNI-1
I-1
I0
tbS'\x04\x1a\x1ej\r\x82\xe4?'
tRp4
g1
(g3
S'3333W\x0c\xc2?'
tRp5
(dp6
S'loss'
p7
g1
(g2
(S'S8'
I0
I1
tRp8
(I3
S'|'
NNNI8
I1
I0
tbS'deviance'
tRp9
sS'max_features_sample'
p10
F0.35927950021823329
sS'max_features_use_preset'
p11
I00
sS'learning_rate'
p12
F0.55107882530721586
sS'min_samples_leaf'
p13
I6
sS'n_estimators'
p14
I14
sS'min_samples_split'
p15
I6
sS'max_depth'
p16
I56
st.(cnumpy.core.multiarray
scalar
p1
(cnumpy
dtype
p2
(S'f8'
I0
I1
tRp3
(I3
S'<'
NNNI-1
I-1
I0
tbS'\x04\x84\x86b\x96\x8a\xe2?'
tRp4
g1
(g3
S'wwww\xb7!\xa6?'
tRp5
(dp6
S'loss'
p7
g1
(g2
(S'S8'
I0
I1
tRp8
(I3
S'|'
NNNI8
I1
I0
tbS'deviance'
tRp9
sS'max_features_use_preset'
p10
I01
sS'learning_rate'
p11
F0.587031910507403
sS'max_features_preset'
p12
S'log2'
p13
sS'min_samples_leaf'
p14
I5
sS'n_estimators'
p15
I6
sS'min_samples_split'
p16
I19
sS'max_depth'
p17
I61
st.(cnumpy.core.multiarray
scalar
p1
(cnumpy
dtype
p2
(S'f8'
I0
I1
tRp3
(I3
S'<'
NNNI-1
I-1
I0
tbS'@De\xd5\xf0\xaa\xe4?'
tRp4
g1
(g3
S'wwww}S\xb5?'
tRp5
(dp6
S'loss'
p7
g1
(g2
(S'S8'
I0
I1
tRp8
(I3
S'|'
NNNI8
I1
I0
tbS'deviance'
tRp9
sS'max_features_use_preset'
p10
I01
sS'learning_rate'
p11
F0.53325211759461988
sS'max_features_preset'
p12
S'sqrt'
p13
sS'min_samples_leaf'
p14
I9
sS'n_estimators'
p15
I19
sS'min_samples_split'
p16
I16
sS'max_depth'
p17
I3
st.(cnumpy.core.multiarray
scalar
p1
(cnumpy
dtype
p2
(S'f8'
I0
I1
tRp3
(I3
S'<'
NNNI-1
I-1
I0
tbS'Y1\xa2\xc2_\x1c\xe5?'
tRp4
g1
(g3
S'UUUU\x8d>\xc1?'
tRp5
(dp6
S'loss'
p7
g1
(g2
(S'S8'
I0
I1
tRp8
(I3
S'|'
NNNI8
I1
I0
tbS'deviance'
tRp9
sS'max_features_use_preset'
p10
I01
sS'learning_rate'
p11
F0.66306158822599437
sS'max_features_preset'
p12
S'log2'
p13
sS'min_samples_leaf'
p14
I6
sS'n_estimators'
p15
I14
sS'min_samples_split'
p16
I2
sS'max_depth'
p17
I6
st.(cnumpy.core.multiarray
scalar
p1
(cnumpy
dtype
p2
(S'f8'
I0
I1
tRp3
(I3
S'<'
NNNI-1
I-1
I0
tbS'\xb0\xbb\xd94\xe5\x8a\xe4?'
tRp4
g1
(g3
S'""""\x82\x9b\xad?'
tRp5
(dp6
S'loss'
p7
g1
(g2
(S'S8'
I0
I1
tRp8
(I3
S'|'
NNNI8
I1
I0
tbS'deviance'
tRp9
sS'max_features_use_preset'
p10
I01
sS'learning_rate'
p11
F0.83205834702952131
sS'max_features_preset'
p12
NsS'min_samples_leaf'
p13
I10
sS'n_estimators'
p14
I8
sS'min_samples_split'
p15
I16
sS'max_depth'
p16
I77
st.(cnumpy.core.multiarray
scalar
p1
(cnumpy
dtype
p2
(S'f8'
I0
I1
tRp3
(I3
S'<'
NNNI-1
I-1
I0
tbS'\x9f6\x1fo\xf63\xe0?'
tRp4
g1
(g3
S'\x89\x88\x88\x88`\x9d\x95?'
tRp5
(dp6
S'loss'
p7
g1
(g2
(S'S8'
I0
I1
tRp8
(I3
S'|'
NNNI8
I1
I0
tbS'deviance'
tRp9
sS'max_features_use_preset'
p10
I01
sS'learning_rate'
p11
F0.69683789374967153
sS'max_features_preset'
p12
S'sqrt'
p13
sS'min_samples_leaf'
p14
I16
sS'n_estimators'
p15
I4
sS'min_samples_split'
p16
I3
sS'max_depth'
p17
I6
st.(cnumpy.core.multiarray
scalar
p1
(cnumpy
dtype
p2
(S'f8'
I0
I1
tRp3
(I3
S'<'
NNNI-1
I-1
I0
tbS'j8\x14\xcb\xda\xe9\xe3?'
tRp4
g1
(g3
S'UUUU\x15\x1f\xaf?'
tRp5
(dp6
S'loss'
p7
g1
(g2
(S'S8'
I0
I1
tRp8
(I3
S'|'
NNNI8
I1
I0
tbS'deviance'
tRp9
sS'max_features_use_preset'
p10
I01
sS'learning_rate'
p11
F0.6289766109362348
sS'max_features_preset'
p12
NsS'min_samples_leaf'
p13
I8
sS'n_estimators'
p14
I8
sS'min_samples_split'
p15
I20
sS'max_depth'
p16
I109
st.(cnumpy.core.multiarray
scalar
p1
(cnumpy
dtype
p2
(S'f8'
I0
I1
tRp3
(I3
S'<'
NNNI-1
I-1
I0
tbS'\xfe\x9a\xa3\xc8K\x91\xe5?'
tRp4
g1
(g3
S'\xde\xdd\xdd\xdd\x16\x12\xc1?'
tRp5
(dp6
S'loss'
p7
g1
(g2
(S'S8'
I0
I1
tRp8
(I3
S'|'
NNNI8
I1
I0
tbS'deviance'
tRp9
sS'max_features_sample'
p10
F0.9532440917027909
sS'max_features_use_preset'
p11
I00
sS'learning_rate'
p12
F0.85781075382960137
sS'min_samples_leaf'
p13
I13
sS'n_estimators'
p14
I12
sS'min_samples_split'
p15
I5
sS'max_depth'
p16
I21
st.(cnumpy.core.multiarray
scalar
p1
(cnumpy
dtype
p2
(S'f8'
I0
I1
tRp3
(I3
S'<'
NNNI-1
I-1
I0
tbS'W\xf0R\x98\x86\x1b\xe4?'
tRp4
g1
(g3
S'\x9a\x99\x99\x99g-\xc0?'
tRp5
(dp6
S'loss'
p7
g1
(g2
(S'S8'
I0
I1
tRp8
(I3
S'|'
NNNI8
I1
I0
tbS'deviance'
tRp9
sS'max_features_sample'
p10
F0.27799242237754829
sS'max_features_use_preset'
p11
I00
sS'learning_rate'
p12
F0.38405199523709588
sS'min_samples_leaf'
p13
I13
sS'n_estimators'
p14
I19
sS'min_samples_split'
p15
I13
sS'max_depth'
p16
I8
st.(cnumpy.core.multiarray
scalar
p1
(cnumpy
dtype
p2
(S'f8'
I0
I1
tRp3
(I3
S'<'
NNNI-1
I-1
I0
tbS'\xb7\xca\x0c:\x1c\xe4\xcc?'
tRp4
g1
(g3
S'\xbc\xbb\xbb\xbb\x9b\xed\x9e?'
tRp5
(dp6
S'loss'
p7
g1
(g2
(S'S8'
I0
I1
tRp8
(I3
S'|'
NNNI8
I1
I0
tbS'deviance'
tRp9
sS'max_features_use_preset'
p10
I01
sS'learning_rate'
p11
F0.26020196798899975
sS'max_features_preset'
p12
S'sqrt'
p13
sS'min_samples_leaf'
p14
I9
sS'n_estimators'
p15
I11
sS'min_samples_split'
p16
I19
sS'max_depth'
p17
I1
st.(cnumpy.core.multiarray
scalar
p1
(cnumpy
dtype
p2
(S'f8'
I0
I1
tRp3
(I3
S'<'
NNNI-1
I-1
I0
tbS']\x1d\xc9DW\xd0\xe4?'
tRp4
g1
(g3
S'UUUU\x13!\xc1?'
tRp5
(dp6
S'loss'
p7
g1
(g2
(S'S8'
I0
I1
tRp8
(I3
S'|'
NNNI8
I1
I0
tbS'deviance'
tRp9
sS'max_features_use_preset'
p10
I01
sS'learning_rate'
p11
F0.41516781383479484
sS'max_features_preset'
p12
S'log2'
p13
sS'min_samples_leaf'
p14
I11
sS'n_estimators'
p15
I19
sS'min_samples_split'
p16
I18
sS'max_depth'
p17
I42
st.(cnumpy.core.multiarray
scalar
p1
(cnumpy
dtype
p2
(S'f8'
I0
I1
tRp3
(I3
S'<'
NNNI-1
I-1
I0
tbS'\xe1\xce\x8a\xb6K\xcd\xb7?'
tRp4
g1
(g3
S'\x89\x88\x88\x88(\xa6\x8a?'
tRp5
(dp6
S'loss'
p7
g1
(g2
(S'S8'
I0
I1
tRp8
(I3
S'|'
NNNI8
I1
I0
tbS'deviance'
tRp9
sS'max_features_sample'
p10
F0.50859422145026978
sS'max_features_use_preset'
p11
I00
sS'learning_rate'
p12
F0.21464875926614069
sS'min_samples_leaf'
p13
I12
sS'n_estimators'
p14
I2
sS'min_samples_split'
p15
I16
sS'max_depth'
p16
I70
st.(cnumpy.core.multiarray
scalar
p1
(cnumpy
dtype
p2
(S'f8'
I0
I1
tRp3
(I3
S'<'
NNNI-1
I-1
I0
tbS'\x84\x8e\xde\x17\x88\xcb\xe3?'
tRp4
g1
(g3
S'\xcd\xcc\xcc\xcc\x8ea\xb1?'
tRp5
(dp6
S'loss'
p7
g1
(g2
(S'S8'
I0
I1
tRp8
(I3
S'|'
NNNI8
I1
I0
tbS'deviance'
tRp9
sS'max_features_use_preset'
p10
I01
sS'learning_rate'
p11
F0.79223581340846949
sS'max_features_preset'
p12
S'log2'
p13
sS'min_samples_leaf'
p14
I1
sS'n_estimators'
p15
I6
sS'min_samples_split'
p16
I11
sS'max_depth'
p17
I104
st.(cnumpy.core.multiarray
scalar
p1
(cnumpy
dtype
p2
(S'f8'
I0
I1
tRp3
(I3
S'<'
NNNI-1
I-1
I0
tbS'\xe6\x00\xd1Y\xd7\x17\xc8?'
tRp4
g1
(g3
S'DDDDD\xe9\x8e?'
tRp5
(dp6
S'loss'
p7
g1
(g2
(S'S8'
I0
I1
tRp8
(I3
S'|'
NNNI8
I1
I0
tbS'deviance'
tRp9
sS'max_features_sample'
p10
F0.75967683143834208
sS'max_features_use_preset'
p11
I00
sS'learning_rate'
p12
F0.40124407993027122
sS'min_samples_leaf'
p13
I19
sS'n_estimators'
p14
I5
sS'min_samples_split'
p15
I15
sS'max_depth'
p16
I1
st.(cnumpy.core.multiarray
scalar
p1
(cnumpy
dtype
p2
(S'f8'
I0
I1
tRp3
(I3
S'<'
NNNI-1
I-1
I0
tbS'\x1eL3H\x8ex\xe0?'
tRp4
g1
(g3
S'\x00\x00\x00\x008}\x99?'
tRp5
(dp6
S'loss'
p7
g1
(g2
(S'S8'
I0
I1
tRp8
(I3
S'|'
NNNI8
I1
I0
tbS'deviance'
tRp9
sS'max_features_use_preset'
p10
I01
sS'learning_rate'
p11
F0.78545306661039271
sS'max_features_preset'
p12
S'log2'
p13
sS'min_samples_leaf'
p14
I11
sS'n_estimators'
p15
I7
sS'min_samples_split'
p16
I2
sS'max_depth'
p17
I2
st.(cnumpy.core.multiarray
scalar
p1
(cnumpy
dtype
p2
(S'f8'
I0
I1
tRp3
(I3
S'<'
NNNI-1
I-1
I0
tbS'\xc5\xe6b<\x8a\x1e\xe6?'
tRp4
g1
(g3
S'\xef\xee\xee\xeez\x18\xbd?'
tRp5
(dp6
S'loss'
p7
g1
(g2
(S'S8'
I0
I1
tRp8
(I3
S'|'
NNNI8
I1
I0
tbS'deviance'
tRp9
sS'max_features_use_preset'
p10
I01
sS'learning_rate'
p11
F0.80477785967289517
sS'max_features_preset'
p12
S'log2'
p13
sS'min_samples_leaf'
p14
I19
sS'n_estimators'
p15
I19
sS'min_samples_split'
p16
I19
sS'max_depth'
p17
I6
st.(cnumpy.core.multiarray
scalar
p1
(cnumpy
dtype
p2
(S'f8'
I0
I1
tRp3
(I3
S'<'
NNNI-1
I-1
I0
tbS'\x1d\x03\x99\x14\x17\xcc\xe2?'
tRp4
g1
(g3
S'DDDDdw\xac?'
tRp5
(dp6
S'loss'
p7
g1
(g2
(S'S8'
I0
I1
tRp8
(I3
S'|'
NNNI8
I1
I0
tbS'deviance'
tRp9
sS'max_features_use_preset'
p10
I01
sS'learning_rate'
p11
F0.70705686824909431
sS'max_features_preset'
p12
NsS'min_samples_leaf'
p13
I7
sS'n_estimators'
p14
I5
sS'min_samples_split'
p15
I17
sS'max_depth'
p16
I18
st.(cnumpy.core.multiarray
scalar
p1
(cnumpy
dtype
p2
(S'f8'
I0
I1
tRp3
(I3
S'<'
NNNI-1
I-1
I0
tbS'\xbcP\xeb0\xe4x\xe4?'
tRp4
g1
(g3
S'\xef\xee\xee\xeez\x08\xbb?'
tRp5
(dp6
S'loss'
p7
g1
(g2
(S'S8'
I0
I1
tRp8
(I3
S'|'
NNNI8
I1
I0
tbS'deviance'
tRp9
sS'max_features_sample'
p10
F0.47975721666903359
sS'max_features_use_preset'
p11
I00
sS'learning_rate'
p12
F0.50682175373625937
sS'min_samples_leaf'
p13
I17
sS'n_estimators'
p14
I18
sS'min_samples_split'
p15
I18
sS'max_depth'
p16
I78
st.(cnumpy.core.multiarray
scalar
p1
(cnumpy
dtype
p2
(S'f8'
I0
I1
tRp3
(I3
S'<'
NNNI-1
I-1
I0
tbS'#@A]\t\xee\xd0?'
tRp4
g1
(g3
S'""""\xdcK\xb3?'
tRp5
(dp6
S'loss'
p7
g1
(g2
(S'S8'
I0
I1
tRp8
(I3
S'|'
NNNI8
I1
I0
tbS'deviance'
tRp9
sS'max_features_use_preset'
p10
I01
sS'learning_rate'
p11
F0.079957521774856044
sS'max_features_preset'
p12
S'log2'
p13
sS'min_samples_leaf'
p14
I15
sS'n_estimators'
p15
I13
sS'min_samples_split'
p16
I9
sS'max_depth'
p17
I10
st.(cnumpy.core.multiarray
scalar
p1
(cnumpy
dtype
p2
(S'f8'
I0
I1
tRp3
(I3
S'<'
NNNI-1
I-1
I0
tbS'\xd3\xe8\xd7\xb5H\xd5\xe1?'
tRp4
g1
(g3
S'UUUUe6\x99?'
tRp5
(dp6
S'loss'
p7
g1
(g2
(S'S8'
I0
I1
tRp8
(I3
S'|'
NNNI8
I1
I0
tbS'deviance'
tRp9
sS'max_features_sample'
p10
F0.42422135265239391
sS'max_features_use_preset'
p11
I00
sS'learning_rate'
p12
F0.96935434035701085
sS'min_samples_leaf'
p13
I11
sS'n_estimators'
p14
I6
sS'min_samples_split'
p15
I6
sS'max_depth'
p16
I3
st.(cnumpy.core.multiarray
scalar
p1
(cnumpy
dtype
p2
(S'f8'
I0
I1
tRp3
(I3
S'<'
NNNI-1
I-1
I0
tbS'\t\x0b#\x86\x08\x81\xe3?'
tRp4
g1
(g3
S'\x9a\x99\x99\x99\xd1\x05\xa4?'
tRp5
(dp6
S'loss'
p7
g1
(g2
(S'S8'
I0
I1
tRp8
(I3
S'|'
NNNI8
I1
I0
tbS'deviance'
tRp9
sS'max_features_use_preset'
p10
I01
sS'learning_rate'
p11
F0.75520263879014338
sS'max_features_preset'
p12
NsS'min_samples_leaf'
p13
I8
sS'n_estimators'
p14
I5
sS'min_samples_split'
p15
I4
sS'max_depth'
p16
I80
st.