(lp1
(dp2
S'kernel'
p3
cnumpy.core.multiarray
scalar
p4
(cnumpy
dtype
p5
(S'S3'
I0
I1
tRp6
(I3
S'|'
NNNI3
I1
I0
tbS'rbf'
tRp7
sS'gamma'
p8
F0.89563008670486666
sS'shrinking'
p9
I01
sS'nu'
p10
F0.13445749449728006
sS'tol'
p11
F0.0076438015571021227
sa(dp12
S'kernel'
p13
g4
(g5
(S'S3'
I0
I1
tRp14
(I3
S'|'
NNNI3
I1
I0
tbS'rbf'
tRp15
sS'gamma'
p16
F0.58720544019134258
sS'shrinking'
p17
I00
sS'nu'
p18
F0.0040059817755178084
sS'tol'
p19
F0.0078930932586488926
sa(dp20
S'kernel'
p21
g4
(g5
(S'S3'
I0
I1
tRp22
(I3
S'|'
NNNI3
I1
I0
tbS'rbf'
tRp23
sS'gamma'
p24
F0.15727578430002176
sS'shrinking'
p25
I00
sS'nu'
p26
F0.031637918320897129
sS'tol'
p27
F0.012654080135717791
sa(dp28
S'kernel'
p29
g4
(g5
(S'S3'
I0
I1
tRp30
(I3
S'|'
NNNI3
I1
I0
tbS'rbf'
tRp31
sS'gamma'
p32
F0.91964469519170411
sS'shrinking'
p33
I00
sS'nu'
p34
F0.039878611230300898
sS'tol'
p35
F0.0065794625542732379
sa(dp36
S'kernel'
p37
g4
(g5
(S'S3'
I0
I1
tRp38
(I3
S'|'
NNNI3
I1
I0
tbS'rbf'
tRp39
sS'gamma'
p40
F0.033911902338503053
sS'shrinking'
p41
I00
sS'nu'
p42
F0.1480338895220823
sS'tol'
p43
F0.0098537424488146196
sa(dp44
S'kernel'
p45
g4
(g5
(S'S3'
I0
I1
tRp46
(I3
S'|'
NNNI3
I1
I0
tbS'rbf'
tRp47
sS'gamma'
p48
F0.89631074627231277
sS'shrinking'
p49
I00
sS'nu'
p50
F0.15790744396649847
sS'tol'
p51
F0.0043006502862995583
sa(dp52
S'kernel'
p53
g4
(g5
(S'S3'
I0
I1
tRp54
(I3
S'|'
NNNI3
I1
I0
tbS'rbf'
tRp55
sS'gamma'
p56
F0.59703841359855458
sS'shrinking'
p57
I00
sS'nu'
p58
F0.008362783104362892
sS'tol'
p59
F0.0053684333538188394
sa(dp60
S'kernel'
p61
g4
(g5
(S'S3'
I0
I1
tRp62
(I3
S'|'
NNNI3
I1
I0
tbS'rbf'
tRp63
sS'gamma'
p64
F0.94076870121116396
sS'shrinking'
p65
I00
sS'nu'
p66
F0.012935659880556893
sS'tol'
p67
F0.0058268707999780149
sa(dp68
S'kernel'
p69
g4
(g5
(S'S6'
I0
I1
tRp70
(I3
S'|'
NNNI6
I1
I0
tbS'linear'
tRp71
sS'shrinking'
p72
I01
sS'nu'
p73
F0.0088881736581991611
sS'tol'
p74
F0.0033406897833337824
sa(dp75
S'kernel'
p76
g4
(g5
(S'S6'
I0
I1
tRp77
(I3
S'|'
NNNI6
I1
I0
tbS'linear'
tRp78
sS'shrinking'
p79
I01
sS'nu'
p80
F0.025235457009028517
sS'tol'
p81
F0.0059739851522742785
sa(dp82
S'kernel'
p83
g4
(g5
(S'S6'
I0
I1
tRp84
(I3
S'|'
NNNI6
I1
I0
tbS'linear'
tRp85
sS'shrinking'
p86
I00
sS'nu'
p87
F0.13625132903831561
sS'tol'
p88
F0.0017885562587158534
sa(dp89
S'kernel'
p90
g4
(g5
(S'S6'
I0
I1
tRp91
(I3
S'|'
NNNI6
I1
I0
tbS'linear'
tRp92
sS'shrinking'
p93
I00
sS'nu'
p94
F0.10054485820887182
sS'tol'
p95
F0.0075088760761919237
sa(dp96
S'kernel'
p97
g4
(g5
(S'S6'
I0
I1
tRp98
(I3
S'|'
NNNI6
I1
I0
tbS'linear'
tRp99
sS'shrinking'
p100
I00
sS'nu'
p101
F0.075848662597937655
sS'tol'
p102
F0.0055250393886603459
sa(dp103
S'kernel'
p104
g4
(g5
(S'S6'
I0
I1
tRp105
(I3
S'|'
NNNI6
I1
I0
tbS'linear'
tRp106
sS'shrinking'
p107
I00
sS'nu'
p108
F0.049010364632904757
sS'tol'
p109
F0.0058458392689673868
sa(dp110
S'kernel'
p111
g4
(g5
(S'S6'
I0
I1
tRp112
(I3
S'|'
NNNI6
I1
I0
tbS'linear'
tRp113
sS'shrinking'
p114
I00
sS'nu'
p115
F0.093724026499768409
sS'tol'
p116
F0.012470060714736716
sa(dp117
S'kernel'
p118
g4
(g5
(S'S6'
I0
I1
tRp119
(I3
S'|'
NNNI6
I1
I0
tbS'linear'
tRp120
sS'shrinking'
p121
I00
sS'nu'
p122
F0.1228695082137593
sS'tol'
p123
F0.0039637425357421487
sa(dp124
S'kernel'
p125
g4
(g5
(S'S6'
I0
I1
tRp126
(I3
S'|'
NNNI6
I1
I0
tbS'linear'
tRp127
sS'shrinking'
p128
I00
sS'nu'
p129
F0.11051583238294349
sS'tol'
p130
F0.0079765625005220747
sa(dp131
S'kernel'
p132
g4
(g5
(S'S4'
I0
I1
tRp133
(I3
S'|'
NNNI4
I1
I0
tbS'poly'
tRp134
sS'degree'
p135
I2
sS'coef0'
p136
F0.26225840948843648
sS'tol'
p137
F0.0076715276811071369
sS'shrinking'
p138
I01
sS'nu'
p139
F0.16766075320181917
sS'gamma'
p140
F0.88172193190260661
sa(dp141
S'kernel'
p142
g4
(g5
(S'S4'
I0
I1
tRp143
(I3
S'|'
NNNI4
I1
I0
tbS'poly'
tRp144
sS'degree'
p145
I2
sS'coef0'
p146
F0.65403252879920959
sS'tol'
p147
F0.010021405498177682
sS'shrinking'
p148
I01
sS'nu'
p149
F0.16263155345485047
sS'gamma'
p150
F0.5009569585698278
sa(dp151
S'kernel'
p152
g4
(g5
(S'S4'
I0
I1
tRp153
(I3
S'|'
NNNI4
I1
I0
tbS'poly'
tRp154
sS'degree'
p155
I5
sS'coef0'
p156
F0.91442680474053617
sS'tol'
p157
F0.0070879620658519269
sS'shrinking'
p158
I01
sS'nu'
p159
F0.094297348132876269
sS'gamma'
p160
F0.875342995424092
sa(dp161
S'kernel'
p162
g4
(g5
(S'S4'
I0
I1
tRp163
(I3
S'|'
NNNI4
I1
I0
tbS'poly'
tRp164
sS'degree'
p165
I5
sS'coef0'
p166
F0.6004202897489449
sS'tol'
p167
F0.007613156698890026
sS'shrinking'
p168
I01
sS'nu'
p169
F0.026680773439710759
sS'gamma'
p170
F0.6485887223130693
sa(dp171
S'kernel'
p172
g4
(g5
(S'S4'
I0
I1
tRp173
(I3
S'|'
NNNI4
I1
I0
tbS'poly'
tRp174
sS'degree'
p175
I4
sS'coef0'
p176
F0.24188947292393781
sS'tol'
p177
F0.0028359066021274157
sS'shrinking'
p178
I00
sS'nu'
p179
F0.12034163420832056
sS'gamma'
p180
F0.13418184201906724
sa(dp181
S'kernel'
p182
g4
(g5
(S'S4'
I0
I1
tRp183
(I3
S'|'
NNNI4
I1
I0
tbS'poly'
tRp184
sS'degree'
p185
I4
sS'coef0'
p186
F0.13741261124141679
sS'tol'
p187
F0.0070934240967991261
sS'shrinking'
p188
I00
sS'nu'
p189
F0.10734820800826383
sS'gamma'
p190
F0.96192109126846659
sa(dp191
S'kernel'
p192
g4
(g5
(S'S4'
I0
I1
tRp193
(I3
S'|'
NNNI4
I1
I0
tbS'poly'
tRp194
sS'degree'
p195
I3
sS'coef0'
p196
F0.33667492322869907
sS'tol'
p197
F0.028479409131751739
sS'shrinking'
p198
I00
sS'nu'
p199
F0.11440325357610248
sS'gamma'
p200
F0.4008847661097471
sa(dp201
S'kernel'
p202
g4
(g5
(S'S4'
I0
I1
tRp203
(I3
S'|'
NNNI4
I1
I0
tbS'poly'
tRp204
sS'degree'
p205
I4
sS'coef0'
p206
F0.72741527299847297
sS'tol'
p207
F0.0077040204874696434
sS'shrinking'
p208
I00
sS'nu'
p209
F0.085298702224309242
sS'gamma'
p210
F0.27585451741256317
sa(dp211
S'kernel'
p212
g4
(g5
(S'S7'
I0
I1
tRp213
(I3
S'|'
NNNI7
I1
I0
tbS'sigmoid'
tRp214
sS'coef0'
p215
F0.57604021475332245
sS'tol'
p216
F0.0064922377719166587
sS'shrinking'
p217
I01
sS'nu'
p218
F0.035143240260561481
sS'gamma'
p219
F0.68139530095810397
sa(dp220
S'kernel'
p221
g4
(g5
(S'S7'
I0
I1
tRp222
(I3
S'|'
NNNI7
I1
I0
tbS'sigmoid'
tRp223
sS'coef0'
p224
F0.8635464679942394
sS'tol'
p225
F0.0027858698660273204
sS'shrinking'
p226
I01
sS'nu'
p227
F0.10116680089491104
sS'gamma'
p228
F0.94791368238434548
sa(dp229
S'kernel'
p230
g4
(g5
(S'S7'
I0
I1
tRp231
(I3
S'|'
NNNI7
I1
I0
tbS'sigmoid'
tRp232
sS'coef0'
p233
F0.84029487398348479
sS'tol'
p234
F0.004351896886254176
sS'shrinking'
p235
I01
sS'nu'
p236
F0.01054274014990797
sS'gamma'
p237
F0.55633376152533809
sa(dp238
S'kernel'
p239
g4
(g5
(S'S7'
I0
I1
tRp240
(I3
S'|'
NNNI7
I1
I0
tbS'sigmoid'
tRp241
sS'coef0'
p242
F0.045467680000158994
sS'tol'
p243
F0.0055080245146101863
sS'shrinking'
p244
I00
sS'nu'
p245
F0.15525960604289935
sS'gamma'
p246
F0.85212576070112844
sa(dp247
S'kernel'
p248
g4
(g5
(S'S7'
I0
I1
tRp249
(I3
S'|'
NNNI7
I1
I0
tbS'sigmoid'
tRp250
sS'coef0'
p251
F0.35102077182718983
sS'tol'
p252
F0.010121260530990349
sS'shrinking'
p253
I00
sS'nu'
p254
F0.10073419906197389
sS'gamma'
p255
F0.32175468244405481
sa.