(lp1
(dp2
S'warm_start'
p3
I01
sS'loss'
p4
cnumpy.core.multiarray
scalar
p5
(cnumpy
dtype
p6
(S'S5'
I0
I1
tRp7
(I3
S'|'
NNNI5
I1
I0
tbS'hinge'
tRp8
sS'C'
F0.022654093612905376
sS'shuffle'
p9
I01
sS'fit_intercept'
p10
I01
sS'n_iter'
p11
I2
sa(dp12
S'warm_start'
p13
I01
sS'loss'
p14
g5
(g6
(S'S5'
I0
I1
tRp15
(I3
S'|'
NNNI5
I1
I0
tbS'hinge'
tRp16
sS'C'
F12594.820850953933
sS'shuffle'
p17
I01
sS'fit_intercept'
p18
I01
sS'n_iter'
p19
I1
sa(dp20
S'warm_start'
p21
I00
sS'loss'
p22
g5
(g6
(S'S5'
I0
I1
tRp23
(I3
S'|'
NNNI5
I1
I0
tbS'hinge'
tRp24
sS'C'
F5.5392519904103073e-05
sS'shuffle'
p25
I01
sS'fit_intercept'
p26
I01
sS'n_iter'
p27
I1
sa(dp28
S'warm_start'
p29
I01
sS'loss'
p30
g5
(g6
(S'S5'
I0
I1
tRp31
(I3
S'|'
NNNI5
I1
I0
tbS'hinge'
tRp32
sS'C'
F20.867233324547382
sS'shuffle'
p33
I00
sS'fit_intercept'
p34
I01
sS'n_iter'
p35
I3
sa(dp36
S'warm_start'
p37
I01
sS'loss'
p38
g5
(g6
(S'S5'
I0
I1
tRp39
(I3
S'|'
NNNI5
I1
I0
tbS'hinge'
tRp40
sS'C'
F8404.23447281464
sS'shuffle'
p41
I00
sS'fit_intercept'
p42
I01
sS'n_iter'
p43
I2
sa(dp44
S'warm_start'
p45
I01
sS'loss'
p46
g5
(g6
(S'S5'
I0
I1
tRp47
(I3
S'|'
NNNI5
I1
I0
tbS'hinge'
tRp48
sS'C'
F0.0039270096762311808
sS'shuffle'
p49
I00
sS'fit_intercept'
p50
I01
sS'n_iter'
p51
I1
sa(dp52
S'warm_start'
p53
I00
sS'loss'
p54
g5
(g6
(S'S5'
I0
I1
tRp55
(I3
S'|'
NNNI5
I1
I0
tbS'hinge'
tRp56
sS'C'
F21723.538307117047
sS'shuffle'
p57
I00
sS'fit_intercept'
p58
I01
sS'n_iter'
p59
I1
sa(dp60
S'warm_start'
p61
I01
sS'loss'
p62
g5
(g6
(S'S5'
I0
I1
tRp63
(I3
S'|'
NNNI5
I1
I0
tbS'hinge'
tRp64
sS'C'
F0.063126141584775905
sS'shuffle'
p65
I01
sS'fit_intercept'
p66
I00
sS'n_iter'
p67
I1
sa(dp68
S'warm_start'
p69
I01
sS'loss'
p70
g5
(g6
(S'S5'
I0
I1
tRp71
(I3
S'|'
NNNI5
I1
I0
tbS'hinge'
tRp72
sS'C'
F0.060530129778058731
sS'shuffle'
p73
I01
sS'fit_intercept'
p74
I00
sS'n_iter'
p75
I1
sa(dp76
S'warm_start'
p77
I01
sS'loss'
p78
g5
(g6
(S'S5'
I0
I1
tRp79
(I3
S'|'
NNNI5
I1
I0
tbS'hinge'
tRp80
sS'C'
F0.50351168987554862
sS'shuffle'
p81
I01
sS'fit_intercept'
p82
I00
sS'n_iter'
p83
I1
sa(dp84
S'warm_start'
p85
I01
sS'loss'
p86
g5
(g6
(S'S5'
I0
I1
tRp87
(I3
S'|'
NNNI5
I1
I0
tbS'hinge'
tRp88
sS'C'
F0.048495822493228258
sS'shuffle'
p89
I01
sS'fit_intercept'
p90
I00
sS'n_iter'
p91
I2
sa(dp92
S'warm_start'
p93
I00
sS'loss'
p94
g5
(g6
(S'S5'
I0
I1
tRp95
(I3
S'|'
NNNI5
I1
I0
tbS'hinge'
tRp96
sS'C'
F13267.633537990236
sS'shuffle'
p97
I01
sS'fit_intercept'
p98
I00
sS'n_iter'
p99
I2
sa(dp100
S'warm_start'
p101
I00
sS'loss'
p102
g5
(g6
(S'S5'
I0
I1
tRp103
(I3
S'|'
NNNI5
I1
I0
tbS'hinge'
tRp104
sS'C'
F432.8595672188705
sS'shuffle'
p105
I01
sS'fit_intercept'
p106
I00
sS'n_iter'
p107
I1
sa(dp108
S'warm_start'
p109
I00
sS'loss'
p110
g5
(g6
(S'S5'
I0
I1
tRp111
(I3
S'|'
NNNI5
I1
I0
tbS'hinge'
tRp112
sS'C'
F290.8811749535987
sS'shuffle'
p113
I01
sS'fit_intercept'
p114
I00
sS'n_iter'
p115
I2
sa(dp116
S'warm_start'
p117
I01
sS'loss'
p118
g5
(g6
(S'S5'
I0
I1
tRp119
(I3
S'|'
NNNI5
I1
I0
tbS'hinge'
tRp120
sS'C'
F31.391116828952242
sS'shuffle'
p121
I00
sS'fit_intercept'
p122
I00
sS'n_iter'
p123
I1
sa(dp124
S'warm_start'
p125
I01
sS'loss'
p126
g5
(g6
(S'S5'
I0
I1
tRp127
(I3
S'|'
NNNI5
I1
I0
tbS'hinge'
tRp128
sS'C'
F4.1755849196661812
sS'shuffle'
p129
I00
sS'fit_intercept'
p130
I00
sS'n_iter'
p131
I2
sa(dp132
S'warm_start'
p133
I01
sS'loss'
p134
g5
(g6
(S'S5'
I0
I1
tRp135
(I3
S'|'
NNNI5
I1
I0
tbS'hinge'
tRp136
sS'C'
F6.3826631558273803
sS'shuffle'
p137
I00
sS'fit_intercept'
p138
I00
sS'n_iter'
p139
I3
sa(dp140
S'warm_start'
p141
I00
sS'loss'
p142
g5
(g6
(S'S5'
I0
I1
tRp143
(I3
S'|'
NNNI5
I1
I0
tbS'hinge'
tRp144
sS'C'
F1977.1357960403129
sS'shuffle'
p145
I00
sS'fit_intercept'
p146
I00
sS'n_iter'
p147
I5
sa(dp148
S'warm_start'
p149
I01
sS'loss'
p150
g5
(g6
(S'S13'
I0
I1
tRp151
(I3
S'|'
NNNI13
I1
I0
tbS'squared_hinge'
tRp152
sS'C'
F0.013471624329335885
sS'shuffle'
p153
I01
sS'fit_intercept'
p154
I01
sS'n_iter'
p155
I1
sa(dp156
S'warm_start'
p157
I00
sS'loss'
p158
g5
(g6
(S'S13'
I0
I1
tRp159
(I3
S'|'
NNNI13
I1
I0
tbS'squared_hinge'
tRp160
sS'C'
F0.051508082153017595
sS'shuffle'
p161
I01
sS'fit_intercept'
p162
I01
sS'n_iter'
p163
I1
sa(dp164
S'warm_start'
p165
I00
sS'loss'
p166
g5
(g6
(S'S13'
I0
I1
tRp167
(I3
S'|'
NNNI13
I1
I0
tbS'squared_hinge'
tRp168
sS'C'
F0.00050219457049703663
sS'shuffle'
p169
I01
sS'fit_intercept'
p170
I01
sS'n_iter'
p171
I1
sa(dp172
S'warm_start'
p173
I00
sS'loss'
p174
g5
(g6
(S'S13'
I0
I1
tRp175
(I3
S'|'
NNNI13
I1
I0
tbS'squared_hinge'
tRp176
sS'C'
F0.65194420164629074
sS'shuffle'
p177
I01
sS'fit_intercept'
p178
I01
sS'n_iter'
p179
I2
sa(dp180
S'warm_start'
p181
I00
sS'loss'
p182
g5
(g6
(S'S13'
I0
I1
tRp183
(I3
S'|'
NNNI13
I1
I0
tbS'squared_hinge'
tRp184
sS'C'
F2.083657826998174
sS'shuffle'
p185
I00
sS'fit_intercept'
p186
I01
sS'n_iter'
p187
I2
sa(dp188
S'warm_start'
p189
I00
sS'loss'
p190
g5
(g6
(S'S13'
I0
I1
tRp191
(I3
S'|'
NNNI13
I1
I0
tbS'squared_hinge'
tRp192
sS'C'
F20.957486059177342
sS'shuffle'
p193
I00
sS'fit_intercept'
p194
I01
sS'n_iter'
p195
I1
sa(dp196
S'warm_start'
p197
I00
sS'loss'
p198
g5
(g6
(S'S13'
I0
I1
tRp199
(I3
S'|'
NNNI13
I1
I0
tbS'squared_hinge'
tRp200
sS'C'
F0.15221038192413694
sS'shuffle'
p201
I00
sS'fit_intercept'
p202
I01
sS'n_iter'
p203
I4
sa(dp204
S'warm_start'
p205
I00
sS'loss'
p206
g5
(g6
(S'S13'
I0
I1
tRp207
(I3
S'|'
NNNI13
I1
I0
tbS'squared_hinge'
tRp208
sS'C'
F0.00013218896398385668
sS'shuffle'
p209
I00
sS'fit_intercept'
p210
I01
sS'n_iter'
p211
I1
sa(dp212
S'warm_start'
p213
I01
sS'loss'
p214
g5
(g6
(S'S13'
I0
I1
tRp215
(I3
S'|'
NNNI13
I1
I0
tbS'squared_hinge'
tRp216
sS'C'
F7.5150530738424181e-05
sS'shuffle'
p217
I01
sS'fit_intercept'
p218
I00
sS'n_iter'
p219
I1
sa(dp220
S'warm_start'
p221
I01
sS'loss'
p222
g5
(g6
(S'S13'
I0
I1
tRp223
(I3
S'|'
NNNI13
I1
I0
tbS'squared_hinge'
tRp224
sS'C'
F4.9875949225036944e-05
sS'shuffle'
p225
I01
sS'fit_intercept'
p226
I00
sS'n_iter'
p227
I2
sa(dp228
S'warm_start'
p229
I01
sS'loss'
p230
g5
(g6
(S'S13'
I0
I1
tRp231
(I3
S'|'
NNNI13
I1
I0
tbS'squared_hinge'
tRp232
sS'C'
F217.32795575134284
sS'shuffle'
p233
I01
sS'fit_intercept'
p234
I00
sS'n_iter'
p235
I1
sa(dp236
S'warm_start'
p237
I00
sS'loss'
p238
g5
(g6
(S'S13'
I0
I1
tRp239
(I3
S'|'
NNNI13
I1
I0
tbS'squared_hinge'
tRp240
sS'C'
F0.0054098505218754169
sS'shuffle'
p241
I01
sS'fit_intercept'
p242
I00
sS'n_iter'
p243
I1
sa(dp244
S'warm_start'
p245
I01
sS'loss'
p246
g5
(g6
(S'S13'
I0
I1
tRp247
(I3
S'|'
NNNI13
I1
I0
tbS'squared_hinge'
tRp248
sS'C'
F0.029839591119050671
sS'shuffle'
p249
I00
sS'fit_intercept'
p250
I00
sS'n_iter'
p251
I4
sa(dp252
S'warm_start'
p253
I01
sS'loss'
p254
g5
(g6
(S'S13'
I0
I1
tRp255
(I3
S'|'
NNNI13
I1
I0
tbS'squared_hinge'
tRp256
sS'C'
F0.0020978545647097409
sS'shuffle'
p257
I00
sS'fit_intercept'
p258
I00
sS'n_iter'
p259
I1
sa(dp260
S'warm_start'
p261
I00
sS'loss'
p262
g5
(g6
(S'S13'
I0
I1
tRp263
(I3
S'|'
NNNI13
I1
I0
tbS'squared_hinge'
tRp264
sS'C'
F62.718368855927935
sS'shuffle'
p265
I00
sS'fit_intercept'
p266
I00
sS'n_iter'
p267
I2
sa(dp268
S'warm_start'
p269
I00
sS'loss'
p270
g5
(g6
(S'S13'
I0
I1
tRp271
(I3
S'|'
NNNI13
I1
I0
tbS'squared_hinge'
tRp272
sS'C'
F0.014547731988134648
sS'shuffle'
p273
I00
sS'fit_intercept'
p274
I00
sS'n_iter'
p275
I6
sa.