(lp1
(dp2
S'weights'
p3
cnumpy.core.multiarray
scalar
p4
(cnumpy
dtype
p5
(S'S7'
I0
I1
tRp6
(I3
S'|'
NNNI7
I1
I0
tbS'uniform'
tRp7
sS'metric'
p8
g4
(g5
(S'S9'
I0
I1
tRp9
(I3
S'|'
NNNI9
I1
I0
tbS'chebyshev'
tRp10
sS'radius'
p11
F6315.1289068688957
sS'leaf_size'
p12
I44
sS'algorithm'
p13
g4
(g5
(S'S7'
I0
I1
tRp14
(I3
S'|'
NNNI7
I1
I0
tbS'kd_tree'
tRp15
sa(dp16
S'weights'
p17
g4
(g5
(S'S7'
I0
I1
tRp18
(I3
S'|'
NNNI7
I1
I0
tbS'uniform'
tRp19
sS'metric'
p20
g4
(g5
(S'S9'
I0
I1
tRp21
(I3
S'|'
NNNI9
I1
I0
tbS'euclidean'
tRp22
sS'radius'
p23
F6758.561106325099
sS'leaf_size'
p24
I30
sS'algorithm'
p25
g4
(g5
(S'S7'
I0
I1
tRp26
(I3
S'|'
NNNI7
I1
I0
tbS'kd_tree'
tRp27
sa(dp28
S'weights'
p29
g4
(g5
(S'S8'
I0
I1
tRp30
(I3
S'|'
NNNI8
I1
I0
tbS'distance'
tRp31
sS'metric'
p32
g4
(g5
(S'S9'
I0
I1
tRp33
(I3
S'|'
NNNI9
I1
I0
tbS'manhattan'
tRp34
sS'radius'
p35
F13.604407850430757
sS'leaf_size'
p36
I27
sS'algorithm'
p37
g4
(g5
(S'S7'
I0
I1
tRp38
(I3
S'|'
NNNI7
I1
I0
tbS'kd_tree'
tRp39
sa(dp40
S'weights'
p41
g4
(g5
(S'S8'
I0
I1
tRp42
(I3
S'|'
NNNI8
I1
I0
tbS'distance'
tRp43
sS'metric'
p44
g4
(g5
(S'S9'
I0
I1
tRp45
(I3
S'|'
NNNI9
I1
I0
tbS'manhattan'
tRp46
sS'radius'
p47
F2564.7712805770434
sS'leaf_size'
p48
I27
sS'algorithm'
p49
g4
(g5
(S'S7'
I0
I1
tRp50
(I3
S'|'
NNNI7
I1
I0
tbS'kd_tree'
tRp51
sa(dp52
S'algorithm'
p53
g4
(g5
(S'S7'
I0
I1
tRp54
(I3
S'|'
NNNI7
I1
I0
tbS'kd_tree'
tRp55
sS'metric'
p56
g4
(g5
(S'S9'
I0
I1
tRp57
(I3
S'|'
NNNI9
I1
I0
tbS'minkowski'
tRp58
sS'p'
I18
sS'radius'
p59
F68.410998043251013
sS'leaf_size'
p60
I37
sS'weights'
p61
g4
(g5
(S'S8'
I0
I1
tRp62
(I3
S'|'
NNNI8
I1
I0
tbS'distance'
tRp63
sa(dp64
S'algorithm'
p65
g4
(g5
(S'S7'
I0
I1
tRp66
(I3
S'|'
NNNI7
I1
I0
tbS'kd_tree'
tRp67
sS'metric'
p68
g4
(g5
(S'S9'
I0
I1
tRp69
(I3
S'|'
NNNI9
I1
I0
tbS'minkowski'
tRp70
sS'p'
I8
sS'radius'
p71
F222.45515640149551
sS'leaf_size'
p72
I38
sS'weights'
p73
g4
(g5
(S'S7'
I0
I1
tRp74
(I3
S'|'
NNNI7
I1
I0
tbS'uniform'
tRp75
sa(dp76
S'weights'
p77
g4
(g5
(S'S8'
I0
I1
tRp78
(I3
S'|'
NNNI8
I1
I0
tbS'distance'
tRp79
sS'metric'
p80
g4
(g5
(S'S9'
I0
I1
tRp81
(I3
S'|'
NNNI9
I1
I0
tbS'chebyshev'
tRp82
sS'radius'
p83
F2.3957685691557771
sS'algorithm'
p84
g4
(g5
(S'S5'
I0
I1
tRp85
(I3
S'|'
NNNI5
I1
I0
tbS'brute'
tRp86
sa(dp87
S'weights'
p88
g4
(g5
(S'S8'
I0
I1
tRp89
(I3
S'|'
NNNI8
I1
I0
tbS'distance'
tRp90
sS'metric'
p91
g4
(g5
(S'S9'
I0
I1
tRp92
(I3
S'|'
NNNI9
I1
I0
tbS'manhattan'
tRp93
sS'radius'
p94
F4965.0470741046702
sS'algorithm'
p95
g4
(g5
(S'S5'
I0
I1
tRp96
(I3
S'|'
NNNI5
I1
I0
tbS'brute'
tRp97
sa(dp98
S'weights'
p99
g4
(g5
(S'S7'
I0
I1
tRp100
(I3
S'|'
NNNI7
I1
I0
tbS'uniform'
tRp101
sS'metric'
p102
g4
(g5
(S'S9'
I0
I1
tRp103
(I3
S'|'
NNNI9
I1
I0
tbS'manhattan'
tRp104
sS'radius'
p105
F16718.109074973137
sS'algorithm'
p106
g4
(g5
(S'S5'
I0
I1
tRp107
(I3
S'|'
NNNI5
I1
I0
tbS'brute'
tRp108
sa(dp109
S'weights'
p110
g4
(g5
(S'S7'
I0
I1
tRp111
(I3
S'|'
NNNI7
I1
I0
tbS'uniform'
tRp112
sS'metric'
p113
g4
(g5
(S'S9'
I0
I1
tRp114
(I3
S'|'
NNNI9
I1
I0
tbS'manhattan'
tRp115
sS'radius'
p116
F72.208926846592647
sS'algorithm'
p117
g4
(g5
(S'S5'
I0
I1
tRp118
(I3
S'|'
NNNI5
I1
I0
tbS'brute'
tRp119
sa(dp120
S'p'
I11
sS'metric'
p121
g4
(g5
(S'S9'
I0
I1
tRp122
(I3
S'|'
NNNI9
I1
I0
tbS'minkowski'
tRp123
sS'radius'
p124
F3086.3926170131977
sS'weights'
p125
g4
(g5
(S'S8'
I0
I1
tRp126
(I3
S'|'
NNNI8
I1
I0
tbS'distance'
tRp127
sS'algorithm'
p128
g4
(g5
(S'S5'
I0
I1
tRp129
(I3
S'|'
NNNI5
I1
I0
tbS'brute'
tRp130
sa(dp131
S'p'
I5
sS'metric'
p132
g4
(g5
(S'S9'
I0
I1
tRp133
(I3
S'|'
NNNI9
I1
I0
tbS'minkowski'
tRp134
sS'radius'
p135
F10.506412109319744
sS'weights'
p136
g4
(g5
(S'S7'
I0
I1
tRp137
(I3
S'|'
NNNI7
I1
I0
tbS'uniform'
tRp138
sS'algorithm'
p139
g4
(g5
(S'S5'
I0
I1
tRp140
(I3
S'|'
NNNI5
I1
I0
tbS'brute'
tRp141
sa(dp142
S'p'
I15
sS'metric'
p143
g4
(g5
(S'S9'
I0
I1
tRp144
(I3
S'|'
NNNI9
I1
I0
tbS'minkowski'
tRp145
sS'radius'
p146
F1917.399704914307
sS'weights'
p147
g4
(g5
(S'S7'
I0
I1
tRp148
(I3
S'|'
NNNI7
I1
I0
tbS'uniform'
tRp149
sS'algorithm'
p150
g4
(g5
(S'S5'
I0
I1
tRp151
(I3
S'|'
NNNI5
I1
I0
tbS'brute'
tRp152
sa(dp153
S'p'
I13
sS'metric'
p154
g4
(g5
(S'S9'
I0
I1
tRp155
(I3
S'|'
NNNI9
I1
I0
tbS'minkowski'
tRp156
sS'radius'
p157
F340.8261552599846
sS'weights'
p158
g4
(g5
(S'S7'
I0
I1
tRp159
(I3
S'|'
NNNI7
I1
I0
tbS'uniform'
tRp160
sS'algorithm'
p161
g4
(g5
(S'S5'
I0
I1
tRp162
(I3
S'|'
NNNI5
I1
I0
tbS'brute'
tRp163
sa(dp164
S'p'
I3
sS'metric'
p165
g4
(g5
(S'S9'
I0
I1
tRp166
(I3
S'|'
NNNI9
I1
I0
tbS'minkowski'
tRp167
sS'radius'
p168
F296.1031096625249
sS'weights'
p169
g4
(g5
(S'S7'
I0
I1
tRp170
(I3
S'|'
NNNI7
I1
I0
tbS'uniform'
tRp171
sS'algorithm'
p172
g4
(g5
(S'S5'
I0
I1
tRp173
(I3
S'|'
NNNI5
I1
I0
tbS'brute'
tRp174
sa(dp175
S'p'
I15
sS'metric'
p176
g4
(g5
(S'S9'
I0
I1
tRp177
(I3
S'|'
NNNI9
I1
I0
tbS'minkowski'
tRp178
sS'radius'
p179
F96.027613002914038
sS'weights'
p180
g4
(g5
(S'S7'
I0
I1
tRp181
(I3
S'|'
NNNI7
I1
I0
tbS'uniform'
tRp182
sS'algorithm'
p183
g4
(g5
(S'S5'
I0
I1
tRp184
(I3
S'|'
NNNI5
I1
I0
tbS'brute'
tRp185
sa(dp186
S'weights'
p187
g4
(g5
(S'S8'
I0
I1
tRp188
(I3
S'|'
NNNI8
I1
I0
tbS'distance'
tRp189
sS'metric'
p190
g4
(g5
(S'S9'
I0
I1
tRp191
(I3
S'|'
NNNI9
I1
I0
tbS'chebyshev'
tRp192
sS'radius'
p193
F74.675952659949573
sS'leaf_size'
p194
I20
sS'algorithm'
p195
g4
(g5
(S'S9'
I0
I1
tRp196
(I3
S'|'
NNNI9
I1
I0
tbS'ball_tree'
tRp197
sa(dp198
S'weights'
p199
g4
(g5
(S'S7'
I0
I1
tRp200
(I3
S'|'
NNNI7
I1
I0
tbS'uniform'
tRp201
sS'metric'
p202
g4
(g5
(S'S9'
I0
I1
tRp203
(I3
S'|'
NNNI9
I1
I0
tbS'chebyshev'
tRp204
sS'radius'
p205
F142.43743227911659
sS'leaf_size'
p206
I25
sS'algorithm'
p207
g4
(g5
(S'S9'
I0
I1
tRp208
(I3
S'|'
NNNI9
I1
I0
tbS'ball_tree'
tRp209
sa(dp210
S'weights'
p211
g4
(g5
(S'S8'
I0
I1
tRp212
(I3
S'|'
NNNI8
I1
I0
tbS'distance'
tRp213
sS'metric'
p214
g4
(g5
(S'S9'
I0
I1
tRp215
(I3
S'|'
NNNI9
I1
I0
tbS'manhattan'
tRp216
sS'radius'
p217
F15608.182806888477
sS'leaf_size'
p218
I23
sS'algorithm'
p219
g4
(g5
(S'S9'
I0
I1
tRp220
(I3
S'|'
NNNI9
I1
I0
tbS'ball_tree'
tRp221
sa(dp222
S'weights'
p223
g4
(g5
(S'S7'
I0
I1
tRp224
(I3
S'|'
NNNI7
I1
I0
tbS'uniform'
tRp225
sS'metric'
p226
g4
(g5
(S'S9'
I0
I1
tRp227
(I3
S'|'
NNNI9
I1
I0
tbS'manhattan'
tRp228
sS'radius'
p229
F149.66025189553039
sS'leaf_size'
p230
I36
sS'algorithm'
p231
g4
(g5
(S'S9'
I0
I1
tRp232
(I3
S'|'
NNNI9
I1
I0
tbS'ball_tree'
tRp233
sa(dp234
S'algorithm'
p235
g4
(g5
(S'S9'
I0
I1
tRp236
(I3
S'|'
NNNI9
I1
I0
tbS'ball_tree'
tRp237
sS'metric'
p238
g4
(g5
(S'S9'
I0
I1
tRp239
(I3
S'|'
NNNI9
I1
I0
tbS'minkowski'
tRp240
sS'p'
I10
sS'radius'
p241
F20478.647441740799
sS'leaf_size'
p242
I26
sS'weights'
p243
g4
(g5
(S'S8'
I0
I1
tRp244
(I3
S'|'
NNNI8
I1
I0
tbS'distance'
tRp245
sa(dp246
S'algorithm'
p247
g4
(g5
(S'S9'
I0
I1
tRp248
(I3
S'|'
NNNI9
I1
I0
tbS'ball_tree'
tRp249
sS'metric'
p250
g4
(g5
(S'S9'
I0
I1
tRp251
(I3
S'|'
NNNI9
I1
I0
tbS'minkowski'
tRp252
sS'p'
I9
sS'radius'
p253
F6.8719271987682804
sS'leaf_size'
p254
I31
sS'weights'
p255
g4
(g5
(S'S8'
I0
I1
tRp256
(I3
S'|'
NNNI8
I1
I0
tbS'distance'
tRp257
sa(dp258
S'algorithm'
p259
g4
(g5
(S'S9'
I0
I1
tRp260
(I3
S'|'
NNNI9
I1
I0
tbS'ball_tree'
tRp261
sS'metric'
p262
g4
(g5
(S'S9'
I0
I1
tRp263
(I3
S'|'
NNNI9
I1
I0
tbS'minkowski'
tRp264
sS'p'
I3
sS'radius'
p265
F1824.2766090969524
sS'leaf_size'
p266
I23
sS'weights'
p267
g4
(g5
(S'S7'
I0
I1
tRp268
(I3
S'|'
NNNI7
I1
I0
tbS'uniform'
tRp269
sa.