(cnumpy.core.multiarray
scalar
p1
(cnumpy
dtype
p2
(S'f8'
I0
I1
tRp3
(I3
S'<'
NNNI-1
I-1
I0
tbS'_] lx\xd3\xc0?'
tRp4
g1
(g3
S'DDDD\x04wh?'
tRp5
(dp6
S'normalize'
p7
I01
sS'fit_intercept'
p8
I01
sS'solver'
p9
g1
(g2
(S'S9'
I0
I1
tRp10
(I3
S'|'
NNNI9
I1
I0
tbS'sparse_cg'
tRp11
sS'max_iter'
p12
I3
sS'tol'
p13
F0.0019315483301923619
sS'alpha'
p14
F0.74606775347023602
st.(cnumpy.core.multiarray
scalar
p1
(cnumpy
dtype
p2
(S'f8'
I0
I1
tRp3
(I3
S'<'
NNNI-1
I-1
I0
tbS'\xa2\xc8\x96.4E\xc0?'
tRp4
g1
(g3
S'\x9a\x99\x99\x99\xd9wb?'
tRp5
(dp6
S'normalize'
p7
I00
sS'fit_intercept'
p8
I01
sS'solver'
p9
g1
(g2
(S'S4'
I0
I1
tRp10
(I3
S'|'
NNNI4
I1
I0
tbS'lsqr'
tRp11
sS'max_iter'
p12
I1
sS'tol'
p13
F0.00076667208283553827
sS'alpha'
p14
F0.69887291379341943
st.(cnumpy.core.multiarray
scalar
p1
(cnumpy
dtype
p2
(S'f8'
I0
I1
tRp3
(I3
S'<'
NNNI-1
I-1
I0
tbS'R\x0b\xa5\x99LD\xc0?'
tRp4
g1
(g3
S'\x9a\x99\x99\x99\x19\rn?'
tRp5
(dp6
S'normalize'
p7
I01
sS'fit_intercept'
p8
I00
sS'solver'
p9
g1
(g2
(S'S4'
I0
I1
tRp10
(I3
S'|'
NNNI4
I1
I0
tbS'lsqr'
tRp11
sS'max_iter'
p12
I2
sS'tol'
p13
F0.0014314161592764458
sS'alpha'
p14
F0.75416916465576922
st.(cnumpy.core.multiarray
scalar
p1
(cnumpy
dtype
p2
(S'f8'
I0
I1
tRp3
(I3
S'<'
NNNI-1
I-1
I0
tbS'\xee\x12\x04\x1d\xe3\x18\xc1?'
tRp4
g1
(g3
S'wwww7Q\x83?'
tRp5
(dp6
S'normalize'
p7
I00
sS'fit_intercept'
p8
I01
sS'solver'
p9
g1
(g2
(S'S3'
I0
I1
tRp10
(I3
S'|'
NNNI3
I1
I0
tbS'svd'
tRp11
sS'max_iter'
p12
I6
sS'tol'
p13
F0.00042063517746810281
sS'alpha'
p14
F0.60779309132349113
st.(cnumpy.core.multiarray
scalar
p1
(cnumpy
dtype
p2
(S'f8'
I0
I1
tRp3
(I3
S'<'
NNNI-1
I-1
I0
tbS'\xb4\x05\xcey\xebZ\xc1?'
tRp4
g1
(g3
S'\x00\x00\x00\x00\x80\xc1U?'
tRp5
(dp6
S'normalize'
p7
I01
sS'fit_intercept'
p8
I00
sS'solver'
p9
g1
(g2
(S'S3'
I0
I1
tRp10
(I3
S'|'
NNNI3
I1
I0
tbS'svd'
tRp11
sS'max_iter'
p12
I35
sS'tol'
p13
F0.0006856947092703467
sS'alpha'
p14
F0.99701688130094701
st.(cnumpy.core.multiarray
scalar
p1
(cnumpy
dtype
p2
(S'f8'
I0
I1
tRp3
(I3
S'<'
NNNI-1
I-1
I0
tbS'\xd4\x0b\x81;\x02\xfb\xc0?'
tRp4
g1
(g3
S'UUUU\xd5\xb5Z?'
tRp5
(dp6
S'normalize'
p7
I01
sS'fit_intercept'
p8
I01
sS'solver'
p9
g1
(g2
(S'S14'
I0
I1
tRp10
(I3
S'|'
NNNI14
I1
I0
tbS'dense_cholesky'
tRp11
sS'max_iter'
p12
I18
sS'tol'
p13
F0.0027349456667390298
sS'alpha'
p14
F0.51650227250578118
st.(cnumpy.core.multiarray
scalar
p1
(cnumpy
dtype
p2
(S'f8'
I0
I1
tRp3
(I3
S'<'
NNNI-1
I-1
I0
tbS'\xea\xbb\xe0\x95\xe7\x13\xc1?'
tRp4
g1
(g3
S'\xbc\xbb\xbb\xbb;Ir?'
tRp5
(dp6
S'normalize'
p7
I00
sS'fit_intercept'
p8
I01
sS'solver'
p9
g1
(g2
(S'S4'
I0
I1
tRp10
(I3
S'|'
NNNI4
I1
I0
tbS'lsqr'
tRp11
sS'max_iter'
p12
I9
sS'tol'
p13
F0.00056309408854111019
sS'alpha'
p14
F0.56599750976402485
st.(cnumpy.core.multiarray
scalar
p1
(cnumpy
dtype
p2
(S'f8'
I0
I1
tRp3
(I3
S'<'
NNNI-1
I-1
I0
tbS'D\xdd\x97\xa6O\x1b\xc1?'
tRp4
g1
(g3
S'\x89\x88\x88\x88\x08_k?'
tRp5
(dp6
S'normalize'
p7
I00
sS'fit_intercept'
p8
I01
sS'solver'
p9
g1
(g2
(S'S9'
I0
I1
tRp10
(I3
S'|'
NNNI9
I1
I0
tbS'sparse_cg'
tRp11
sS'max_iter'
p12
I12
sS'tol'
p13
F0.00040362770796837147
sS'alpha'
p14
F1.1721903654006343
st.(cnumpy.core.multiarray
scalar
p1
(cnumpy
dtype
p2
(S'f8'
I0
I1
tRp3
(I3
S'<'
NNNI-1
I-1
I0
tbS'pz}.V\x11\xc1?'
tRp4
g1
(g3
S'33333DX?'
tRp5
(dp6
S'normalize'
p7
I00
sS'fit_intercept'
p8
I01
sS'solver'
p9
g1
(g2
(S'S14'
I0
I1
tRp10
(I3
S'|'
NNNI14
I1
I0
tbS'dense_cholesky'
tRp11
sS'max_iter'
p12
I11
sS'tol'
p13
F0.00061723601914829044
sS'alpha'
p14
F0.90429081646654308
st.(cnumpy.core.multiarray
scalar
p1
(cnumpy
dtype
p2
(S'f8'
I0
I1
tRp3
(I3
S'<'
NNNI-1
I-1
I0
tbS'C\x1e\x84\xaa\x10\xcb\xc0?'
tRp4
g1
(g3
S'UUUU\x95\xfal?'
tRp5
(dp6
S'normalize'
p7
I01
sS'fit_intercept'
p8
I01
sS'solver'
p9
g1
(g2
(S'S4'
I0
I1
tRp10
(I3
S'|'
NNNI4
I1
I0
tbS'lsqr'
tRp11
sS'max_iter'
p12
I9
sS'tol'
p13
F0.0023372319549490959
sS'alpha'
p14
F0.77895749615621901
st.(cnumpy.core.multiarray
scalar
p1
(cnumpy
dtype
p2
(S'f8'
I0
I1
tRp3
(I3
S'<'
NNNI-1
I-1
I0
tbS'\xf9C\x10\xef\x8d(\xc1?'
tRp4
g1
(g3
S'\x9a\x99\x99\x99\x19\xbbW?'
tRp5
(dp6
S'normalize'
p7
I01
sS'fit_intercept'
p8
I01
sS'solver'
p9
g1
(g2
(S'S14'
I0
I1
tRp10
(I3
S'|'
NNNI14
I1
I0
tbS'dense_cholesky'
tRp11
sS'max_iter'
p12
I4
sS'tol'
p13
F0.00057032697388103703
sS'alpha'
p14
F0.33228243292784798
st.(cnumpy.core.multiarray
scalar
p1
(cnumpy
dtype
p2
(S'f8'
I0
I1
tRp3
(I3
S'<'
NNNI-1
I-1
I0
tbS'j\xae\xbc\x0b.\x92\xbf?'
tRp4
g1
(g3
S'\xcd\xcc\xcc\xcc\xccRq?'
tRp5
(dp6
S'normalize'
p7
I01
sS'fit_intercept'
p8
I01
sS'solver'
p9
g1
(g2
(S'S4'
I0
I1
tRp10
(I3
S'|'
NNNI4
I1
I0
tbS'lsqr'
tRp11
sS'max_iter'
p12
I4
sS'tol'
p13
F0.00031119340872872749
sS'alpha'
p14
F1.4524659409668916
st.(cnumpy.core.multiarray
scalar
p1
(cnumpy
dtype
p2
(S'f8'
I0
I1
tRp3
(I3
S'<'
NNNI-1
I-1
I0
tbS'/\r4\xeav\xa8\xc0?'
tRp4
g1
(g3
S'DDDD\xc4em?'
tRp5
(dp6
S'normalize'
p7
I01
sS'fit_intercept'
p8
I01
sS'solver'
p9
g1
(g2
(S'S4'
I0
I1
tRp10
(I3
S'|'
NNNI4
I1
I0
tbS'lsqr'
tRp11
sS'max_iter'
p12
I16
sS'tol'
p13
F0.0014905912607631026
sS'alpha'
p14
F0.8645748059155971
st.(cnumpy.core.multiarray
scalar
p1
(cnumpy
dtype
p2
(S'f8'
I0
I1
tRp3
(I3
S'<'
NNNI-1
I-1
I0
tbS'\xb4\x05\xcey\xebZ\xc1?'
tRp4
g1
(g3
S'wwww\xf7\x83d?'
tRp5
(dp6
S'normalize'
p7
I01
sS'fit_intercept'
p8
I00
sS'solver'
p9
g1
(g2
(S'S9'
I0
I1
tRp10
(I3
S'|'
NNNI9
I1
I0
tbS'sparse_cg'
tRp11
sS'max_iter'
p12
I9
sS'tol'
p13
F0.0009418866218810541
sS'alpha'
p14
F0.49891566508818602
st.(cnumpy.core.multiarray
scalar
p1
(cnumpy
dtype
p2
(S'f8'
I0
I1
tRp3
(I3
S'<'
NNNI-1
I-1
I0
tbS'gjJh`M\xc1?'
tRp4
g1
(g3
S'\xbc\xbb\xbb\xbb\xfb\x8co?'
tRp5
(dp6
S'normalize'
p7
I01
sS'fit_intercept'
p8
I00
sS'solver'
p9
g1
(g2
(S'S4'
I0
I1
tRp10
(I3
S'|'
NNNI4
I1
I0
tbS'lsqr'
tRp11
sS'max_iter'
p12
I56
sS'tol'
p13
F0.0015017522149888246
sS'alpha'
p14
F1.1959295968144266
st.(cnumpy.core.multiarray
scalar
p1
(cnumpy
dtype
p2
(S'f8'
I0
I1
tRp3
(I3
S'<'
NNNI-1
I-1
I0
tbS'\xb4\x05\xcey\xebZ\xc1?'
tRp4
g1
(g3
S'""""\xa2\xcbS?'
tRp5
(dp6
S'normalize'
p7
I00
sS'fit_intercept'
p8
I00
sS'solver'
p9
g1
(g2
(S'S14'
I0
I1
tRp10
(I3
S'|'
NNNI14
I1
I0
tbS'dense_cholesky'
tRp11
sS'max_iter'
p12
I6
sS'tol'
p13
F0.00082400527326818428
sS'alpha'
p14
F0.76914735129900202
st.(cnumpy.core.multiarray
scalar
p1
(cnumpy
dtype
p2
(S'f8'
I0
I1
tRp3
(I3
S'<'
NNNI-1
I-1
I0
tbS'\xb4\x05\xcey\xebZ\xc1?'
tRp4
g1
(g3
S'\xab\xaa\xaa\xaa*.T?'
tRp5
(dp6
S'normalize'
p7
I00
sS'fit_intercept'
p8
I00
sS'solver'
p9
g1
(g2
(S'S14'
I0
I1
tRp10
(I3
S'|'
NNNI14
I1
I0
tbS'dense_cholesky'
tRp11
sS'max_iter'
p12
I2
sS'tol'
p13
F0.00082134072136059424
sS'alpha'
p14
F2.6909875197769524
st.(cnumpy.core.multiarray
scalar
p1
(cnumpy
dtype
p2
(S'f8'
I0
I1
tRp3
(I3
S'<'
NNNI-1
I-1
I0
tbS'\x9c\x84\xa9\xa2OP\xc1?'
tRp4
g1
(g3
S'\xde\xdd\xdd\xdd\x9d\xc7o?'
tRp5
(dp6
S'normalize'
p7
I01
sS'fit_intercept'
p8
I00
sS'solver'
p9
g1
(g2
(S'S4'
I0
I1
tRp10
(I3
S'|'
NNNI4
I1
I0
tbS'lsqr'
tRp11
sS'max_iter'
p12
I25
sS'tol'
p13
F0.0008659867350244763
sS'alpha'
p14
F0.7853443938233492
st.(cnumpy.core.multiarray
scalar
p1
(cnumpy
dtype
p2
(S'f8'
I0
I1
tRp3
(I3
S'<'
NNNI-1
I-1
I0
tbS'\xa7\x15\xf8\xa8\xc0r\xbe?'
tRp4
g1
(g3
S'\xbc\xbb\xbb\xbb{\x97k?'
tRp5
(dp6
S'normalize'
p7
I01
sS'fit_intercept'
p8
I01
sS'solver'
p9
g1
(g2
(S'S4'
I0
I1
tRp10
(I3
S'|'
NNNI4
I1
I0
tbS'lsqr'
tRp11
sS'max_iter'
p12
I3
sS'tol'
p13
F0.00049933254782801647
sS'alpha'
p14
F2.0533825998419544
st.(cnumpy.core.multiarray
scalar
p1
(cnumpy
dtype
p2
(S'f8'
I0
I1
tRp3
(I3
S'<'
NNNI-1
I-1
I0
tbS'\xdbB\xa0\xcf8J\xc0?'
tRp4
g1
(g3
S'\x00\x00\x00\x00\x00dY?'
tRp5
(dp6
S'normalize'
p7
I01
sS'fit_intercept'
p8
I01
sS'solver'
p9
g1
(g2
(S'S14'
I0
I1
tRp10
(I3
S'|'
NNNI14
I1
I0
tbS'dense_cholesky'
tRp11
sS'max_iter'
p12
I1
sS'tol'
p13
F0.00056290480186010992
sS'alpha'
p14
F1.077033917275446
st.(cnumpy.core.multiarray
scalar
p1
(cnumpy
dtype
p2
(S'f8'
I0
I1
tRp3
(I3
S'<'
NNNI-1
I-1
I0
tbS'pz}.V\x11\xc1?'
tRp4
g1
(g3
S'\xde\xdd\xdd\xdd\xdd\x0bY?'
tRp5
(dp6
S'normalize'
p7
I00
sS'fit_intercept'
p8
I01
sS'solver'
p9
g1
(g2
(S'S3'
I0
I1
tRp10
(I3
S'|'
NNNI3
I1
I0
tbS'svd'
tRp11
sS'max_iter'
p12
I31
sS'tol'
p13
F0.00087317736545911321
sS'alpha'
p14
F1.0229507809382494
st.(cnumpy.core.multiarray
scalar
p1
(cnumpy
dtype
p2
(S'f8'
I0
I1
tRp3
(I3
S'<'
NNNI-1
I-1
I0
tbS'\xb4\x05\xcey\xebZ\xc1?'
tRp4
g1
(g3
S'\x89\x88\x88\x88\x888U?'
tRp5
(dp6
S'normalize'
p7
I00
sS'fit_intercept'
p8
I00
sS'solver'
p9
g1
(g2
(S'S3'
I0
I1
tRp10
(I3
S'|'
NNNI3
I1
I0
tbS'svd'
tRp11
sS'max_iter'
p12
I9
sS'tol'
p13
F0.00092106070111583652
sS'alpha'
p14
F0.73357255601365412
st.(cnumpy.core.multiarray
scalar
p1
(cnumpy
dtype
p2
(S'f8'
I0
I1
tRp3
(I3
S'<'
NNNI-1
I-1
I0
tbS'\xb4\x05\xcey\xebZ\xc1?'
tRp4
g1
(g3
S'UUUUU]U?'
tRp5
(dp6
S'normalize'
p7
I00
sS'fit_intercept'
p8
I00
sS'solver'
p9
g1
(g2
(S'S14'
I0
I1
tRp10
(I3
S'|'
NNNI14
I1
I0
tbS'dense_cholesky'
tRp11
sS'max_iter'
p12
I6
sS'tol'
p13
F0.0006688591230811302
sS'alpha'
p14
F0.46557840428139985
st.(cnumpy.core.multiarray
scalar
p1
(cnumpy
dtype
p2
(S'f8'
I0
I1
tRp3
(I3
S'<'
NNNI-1
I-1
I0
tbS'\xc6{\x9fw\xc8\xf0\xbf?'
tRp4
g1
(g3
S'\x00\x00\x00\x00\x003Z?'
tRp5
(dp6
S'normalize'
p7
I01
sS'fit_intercept'
p8
I01
sS'solver'
p9
g1
(g2
(S'S3'
I0
I1
tRp10
(I3
S'|'
NNNI3
I1
I0
tbS'svd'
tRp11
sS'max_iter'
p12
I6
sS'tol'
p13
F0.00050602730936310321
sS'alpha'
p14
F1.2254320759660813
st.(cnumpy.core.multiarray
scalar
p1
(cnumpy
dtype
p2
(S'f8'
I0
I1
tRp3
(I3
S'<'
NNNI-1
I-1
I0
tbS'\xb4\x05\xcey\xebZ\xc1?'
tRp4
g1
(g3
S'"""""WT?'
tRp5
(dp6
S'normalize'
p7
I00
sS'fit_intercept'
p8
I00
sS'solver'
p9
g1
(g2
(S'S14'
I0
I1
tRp10
(I3
S'|'
NNNI14
I1
I0
tbS'dense_cholesky'
tRp11
sS'max_iter'
p12
I6
sS'tol'
p13
F0.0014088231522768994
sS'alpha'
p14
F0.46973749732175385
st.(cnumpy.core.multiarray
scalar
p1
(cnumpy
dtype
p2
(S'f8'
I0
I1
tRp3
(I3
S'<'
NNNI-1
I-1
I0
tbS'\xb4\x05\xcey\xebZ\xc1?'
tRp4
g1
(g3
S'ffff\xe6\x0cV?'
tRp5
(dp6
S'normalize'
p7
I00
sS'fit_intercept'
p8
I00
sS'solver'
p9
g1
(g2
(S'S3'
I0
I1
tRp10
(I3
S'|'
NNNI3
I1
I0
tbS'svd'
tRp11
sS'max_iter'
p12
I8
sS'tol'
p13
F0.00069096339244159003
sS'alpha'
p14
F1.0944057812424453
st.(cnumpy.core.multiarray
scalar
p1
(cnumpy
dtype
p2
(S'f8'
I0
I1
tRp3
(I3
S'<'
NNNI-1
I-1
I0
tbS'pz}.V\x11\xc1?'
tRp4
g1
(g3
S'\x89\x88\x88\x88\x88\xc7Y?'
tRp5
(dp6
S'normalize'
p7
I00
sS'fit_intercept'
p8
I01
sS'solver'
p9
g1
(g2
(S'S3'
I0
I1
tRp10
(I3
S'|'
NNNI3
I1
I0
tbS'svd'
tRp11
sS'max_iter'
p12
I1
sS'tol'
p13
F0.0011409180424157882
sS'alpha'
p14
F1.3094760156291054
st.(cnumpy.core.multiarray
scalar
p1
(cnumpy
dtype
p2
(S'f8'
I0
I1
tRp3
(I3
S'<'
NNNI-1
I-1
I0
tbS'\xb4\x05\xcey\xebZ\xc1?'
tRp4
g1
(g3
S'333335U?'
tRp5
(dp6
S'normalize'
p7
I00
sS'fit_intercept'
p8
I00
sS'solver'
p9
g1
(g2
(S'S14'
I0
I1
tRp10
(I3
S'|'
NNNI14
I1
I0
tbS'dense_cholesky'
tRp11
sS'max_iter'
p12
I7
sS'tol'
p13
F0.00067686827263390694
sS'alpha'
p14
F1.18152593685223
st.(cnumpy.core.multiarray
scalar
p1
(cnumpy
dtype
p2
(S'f8'
I0
I1
tRp3
(I3
S'<'
NNNI-1
I-1
I0
tbS'\xb4\x05\xcey\xebZ\xc1?'
tRp4
g1
(g3
S'\xcd\xcc\xcc\xccL\x06W?'
tRp5
(dp6
S'normalize'
p7
I00
sS'fit_intercept'
p8
I00
sS'solver'
p9
g1
(g2
(S'S3'
I0
I1
tRp10
(I3
S'|'
NNNI3
I1
I0
tbS'svd'
tRp11
sS'max_iter'
p12
I0
sS'tol'
p13
F0.0018812344313755968
sS'alpha'
p14
F1.2415650361686896
st.(cnumpy.core.multiarray
scalar
p1
(cnumpy
dtype
p2
(S'f8'
I0
I1
tRp3
(I3
S'<'
NNNI-1
I-1
I0
tbS'\x92\xa6\xeb-XT\xc1?'
tRp4
g1
(g3
S'ffff\xe6\x89d?'
tRp5
(dp6
S'normalize'
p7
I00
sS'fit_intercept'
p8
I00
sS'solver'
p9
g1
(g2
(S'S9'
I0
I1
tRp10
(I3
S'|'
NNNI9
I1
I0
tbS'sparse_cg'
tRp11
sS'max_iter'
p12
I9
sS'tol'
p13
F0.0012551116289570101
sS'alpha'
p14
F0.49157963756159062
st.(cnumpy.core.multiarray
scalar
p1
(cnumpy
dtype
p2
(S'f8'
I0
I1
tRp3
(I3
S'<'
NNNI-1
I-1
I0
tbS'\xb4\x05\xcey\xebZ\xc1?'
tRp4
g1
(g3
S'\xcd\xcc\xcc\xcc\xcctV?'
tRp5
(dp6
S'normalize'
p7
I01
sS'fit_intercept'
p8
I00
sS'solver'
p9
g1
(g2
(S'S3'
I0
I1
tRp10
(I3
S'|'
NNNI3
I1
I0
tbS'svd'
tRp11
sS'max_iter'
p12
I3
sS'tol'
p13
F0.00073487882671341995
sS'alpha'
p14
F0.77901593313644113
st.(cnumpy.core.multiarray
scalar
p1
(cnumpy
dtype
p2
(S'f8'
I0
I1
tRp3
(I3
S'<'
NNNI-1
I-1
I0
tbS'pz}.V\x11\xc1?'
tRp4
g1
(g3
S'\xab\xaa\xaa\xaa\xaa?Y?'
tRp5
(dp6
S'normalize'
p7
I00
sS'fit_intercept'
p8
I01
sS'solver'
p9
g1
(g2
(S'S3'
I0
I1
tRp10
(I3
S'|'
NNNI3
I1
I0
tbS'svd'
tRp11
sS'max_iter'
p12
I5
sS'tol'
p13
F0.0015500728187715573
sS'alpha'
p14
F1.0529797142740838
st.(cnumpy.core.multiarray
scalar
p1
(cnumpy
dtype
p2
(S'f8'
I0
I1
tRp3
(I3
S'<'
NNNI-1
I-1
I0
tbS"Y<'8\xccM\xc0?"
tRp4
g1
(g3
S'""""\xa2sY?'
tRp5
(dp6
S'normalize'
p7
I01
sS'fit_intercept'
p8
I01
sS'solver'
p9
g1
(g2
(S'S3'
I0
I1
tRp10
(I3
S'|'
NNNI3
I1
I0
tbS'svd'
tRp11
sS'max_iter'
p12
I7
sS'tol'
p13
F0.0010263335586131839
sS'alpha'
p14
F1.0434886840978315
st.(cnumpy.core.multiarray
scalar
p1
(cnumpy
dtype
p2
(S'f8'
I0
I1
tRp3
(I3
S'<'
NNNI-1
I-1
I0
tbS'\xb4\x05\xcey\xebZ\xc1?'
tRp4
g1
(g3
S'\xbc\xbb\xbb\xbb\xbb\x8eV?'
tRp5
(dp6
S'normalize'
p7
I01
sS'fit_intercept'
p8
I00
sS'solver'
p9
g1
(g2
(S'S3'
I0
I1
tRp10
(I3
S'|'
NNNI3
I1
I0
tbS'svd'
tRp11
sS'max_iter'
p12
I8
sS'tol'
p13
F0.0014932988663049259
sS'alpha'
p14
F1.2143332283277466
st.