(lp1
(dp2
S'normalize'
p3
I01
sS'fit_intercept'
p4
I01
sS'solver'
p5
cnumpy.core.multiarray
scalar
p6
(cnumpy
dtype
p7
(S'S3'
I0
I1
tRp8
(I3
S'|'
NNNI3
I1
I0
tbS'svd'
tRp9
sS'max_iter'
p10
I6
sS'tol'
p11
F0.00050602730936310321
sS'alpha'
p12
F1.2254320759660813
sa(dp13
S'normalize'
p14
I01
sS'fit_intercept'
p15
I01
sS'solver'
p16
g6
(g7
(S'S3'
I0
I1
tRp17
(I3
S'|'
NNNI3
I1
I0
tbS'svd'
tRp18
sS'max_iter'
p19
I7
sS'tol'
p20
F0.0010263335586131839
sS'alpha'
p21
F1.0434886840978315
sa(dp22
S'normalize'
p23
I00
sS'fit_intercept'
p24
I01
sS'solver'
p25
g6
(g7
(S'S3'
I0
I1
tRp26
(I3
S'|'
NNNI3
I1
I0
tbS'svd'
tRp27
sS'max_iter'
p28
I6
sS'tol'
p29
F0.00042063517746810281
sS'alpha'
p30
F0.60779309132349113
sa(dp31
S'normalize'
p32
I00
sS'fit_intercept'
p33
I01
sS'solver'
p34
g6
(g7
(S'S3'
I0
I1
tRp35
(I3
S'|'
NNNI3
I1
I0
tbS'svd'
tRp36
sS'max_iter'
p37
I31
sS'tol'
p38
F0.00087317736545911321
sS'alpha'
p39
F1.0229507809382494
sa(dp40
S'normalize'
p41
I00
sS'fit_intercept'
p42
I01
sS'solver'
p43
g6
(g7
(S'S3'
I0
I1
tRp44
(I3
S'|'
NNNI3
I1
I0
tbS'svd'
tRp45
sS'max_iter'
p46
I1
sS'tol'
p47
F0.0011409180424157882
sS'alpha'
p48
F1.3094760156291054
sa(dp49
S'normalize'
p50
I00
sS'fit_intercept'
p51
I01
sS'solver'
p52
g6
(g7
(S'S3'
I0
I1
tRp53
(I3
S'|'
NNNI3
I1
I0
tbS'svd'
tRp54
sS'max_iter'
p55
I5
sS'tol'
p56
F0.0015500728187715573
sS'alpha'
p57
F1.0529797142740838
sa(dp58
S'normalize'
p59
I01
sS'fit_intercept'
p60
I00
sS'solver'
p61
g6
(g7
(S'S3'
I0
I1
tRp62
(I3
S'|'
NNNI3
I1
I0
tbS'svd'
tRp63
sS'max_iter'
p64
I35
sS'tol'
p65
F0.0006856947092703467
sS'alpha'
p66
F0.99701688130094701
sa(dp67
S'normalize'
p68
I01
sS'fit_intercept'
p69
I00
sS'solver'
p70
g6
(g7
(S'S3'
I0
I1
tRp71
(I3
S'|'
NNNI3
I1
I0
tbS'svd'
tRp72
sS'max_iter'
p73
I3
sS'tol'
p74
F0.00073487882671341995
sS'alpha'
p75
F0.77901593313644113
sa(dp76
S'normalize'
p77
I01
sS'fit_intercept'
p78
I00
sS'solver'
p79
g6
(g7
(S'S3'
I0
I1
tRp80
(I3
S'|'
NNNI3
I1
I0
tbS'svd'
tRp81
sS'max_iter'
p82
I8
sS'tol'
p83
F0.0014932988663049259
sS'alpha'
p84
F1.2143332283277466
sa(dp85
S'normalize'
p86
I00
sS'fit_intercept'
p87
I00
sS'solver'
p88
g6
(g7
(S'S3'
I0
I1
tRp89
(I3
S'|'
NNNI3
I1
I0
tbS'svd'
tRp90
sS'max_iter'
p91
I9
sS'tol'
p92
F0.00092106070111583652
sS'alpha'
p93
F0.73357255601365412
sa(dp94
S'normalize'
p95
I00
sS'fit_intercept'
p96
I00
sS'solver'
p97
g6
(g7
(S'S3'
I0
I1
tRp98
(I3
S'|'
NNNI3
I1
I0
tbS'svd'
tRp99
sS'max_iter'
p100
I8
sS'tol'
p101
F0.00069096339244159003
sS'alpha'
p102
F1.0944057812424453
sa(dp103
S'normalize'
p104
I00
sS'fit_intercept'
p105
I00
sS'solver'
p106
g6
(g7
(S'S3'
I0
I1
tRp107
(I3
S'|'
NNNI3
I1
I0
tbS'svd'
tRp108
sS'max_iter'
p109
I0
sS'tol'
p110
F0.0018812344313755968
sS'alpha'
p111
F1.2415650361686896
sa(dp112
S'normalize'
p113
I01
sS'fit_intercept'
p114
I01
sS'solver'
p115
g6
(g7
(S'S9'
I0
I1
tRp116
(I3
S'|'
NNNI9
I1
I0
tbS'sparse_cg'
tRp117
sS'max_iter'
p118
I3
sS'tol'
p119
F0.0019315483301923619
sS'alpha'
p120
F0.74606775347023602
sa(dp121
S'normalize'
p122
I00
sS'fit_intercept'
p123
I01
sS'solver'
p124
g6
(g7
(S'S9'
I0
I1
tRp125
(I3
S'|'
NNNI9
I1
I0
tbS'sparse_cg'
tRp126
sS'max_iter'
p127
I12
sS'tol'
p128
F0.00040362770796837147
sS'alpha'
p129
F1.1721903654006343
sa(dp130
S'normalize'
p131
I01
sS'fit_intercept'
p132
I00
sS'solver'
p133
g6
(g7
(S'S9'
I0
I1
tRp134
(I3
S'|'
NNNI9
I1
I0
tbS'sparse_cg'
tRp135
sS'max_iter'
p136
I9
sS'tol'
p137
F0.0009418866218810541
sS'alpha'
p138
F0.49891566508818602
sa(dp139
S'normalize'
p140
I00
sS'fit_intercept'
p141
I00
sS'solver'
p142
g6
(g7
(S'S9'
I0
I1
tRp143
(I3
S'|'
NNNI9
I1
I0
tbS'sparse_cg'
tRp144
sS'max_iter'
p145
I9
sS'tol'
p146
F0.0012551116289570101
sS'alpha'
p147
F0.49157963756159062
sa(dp148
S'normalize'
p149
I01
sS'fit_intercept'
p150
I01
sS'solver'
p151
g6
(g7
(S'S4'
I0
I1
tRp152
(I3
S'|'
NNNI4
I1
I0
tbS'lsqr'
tRp153
sS'max_iter'
p154
I9
sS'tol'
p155
F0.0023372319549490959
sS'alpha'
p156
F0.77895749615621901
sa(dp157
S'normalize'
p158
I01
sS'fit_intercept'
p159
I01
sS'solver'
p160
g6
(g7
(S'S4'
I0
I1
tRp161
(I3
S'|'
NNNI4
I1
I0
tbS'lsqr'
tRp162
sS'max_iter'
p163
I4
sS'tol'
p164
F0.00031119340872872749
sS'alpha'
p165
F1.4524659409668916
sa(dp166
S'normalize'
p167
I01
sS'fit_intercept'
p168
I01
sS'solver'
p169
g6
(g7
(S'S4'
I0
I1
tRp170
(I3
S'|'
NNNI4
I1
I0
tbS'lsqr'
tRp171
sS'max_iter'
p172
I16
sS'tol'
p173
F0.0014905912607631026
sS'alpha'
p174
F0.8645748059155971
sa(dp175
S'normalize'
p176
I01
sS'fit_intercept'
p177
I01
sS'solver'
p178
g6
(g7
(S'S4'
I0
I1
tRp179
(I3
S'|'
NNNI4
I1
I0
tbS'lsqr'
tRp180
sS'max_iter'
p181
I3
sS'tol'
p182
F0.00049933254782801647
sS'alpha'
p183
F2.0533825998419544
sa(dp184
S'normalize'
p185
I00
sS'fit_intercept'
p186
I01
sS'solver'
p187
g6
(g7
(S'S4'
I0
I1
tRp188
(I3
S'|'
NNNI4
I1
I0
tbS'lsqr'
tRp189
sS'max_iter'
p190
I1
sS'tol'
p191
F0.00076667208283553827
sS'alpha'
p192
F0.69887291379341943
sa(dp193
S'normalize'
p194
I00
sS'fit_intercept'
p195
I01
sS'solver'
p196
g6
(g7
(S'S4'
I0
I1
tRp197
(I3
S'|'
NNNI4
I1
I0
tbS'lsqr'
tRp198
sS'max_iter'
p199
I9
sS'tol'
p200
F0.00056309408854111019
sS'alpha'
p201
F0.56599750976402485
sa(dp202
S'normalize'
p203
I01
sS'fit_intercept'
p204
I00
sS'solver'
p205
g6
(g7
(S'S4'
I0
I1
tRp206
(I3
S'|'
NNNI4
I1
I0
tbS'lsqr'
tRp207
sS'max_iter'
p208
I2
sS'tol'
p209
F0.0014314161592764458
sS'alpha'
p210
F0.75416916465576922
sa(dp211
S'normalize'
p212
I01
sS'fit_intercept'
p213
I00
sS'solver'
p214
g6
(g7
(S'S4'
I0
I1
tRp215
(I3
S'|'
NNNI4
I1
I0
tbS'lsqr'
tRp216
sS'max_iter'
p217
I56
sS'tol'
p218
F0.0015017522149888246
sS'alpha'
p219
F1.1959295968144266
sa(dp220
S'normalize'
p221
I01
sS'fit_intercept'
p222
I00
sS'solver'
p223
g6
(g7
(S'S4'
I0
I1
tRp224
(I3
S'|'
NNNI4
I1
I0
tbS'lsqr'
tRp225
sS'max_iter'
p226
I25
sS'tol'
p227
F0.0008659867350244763
sS'alpha'
p228
F0.7853443938233492
sa(dp229
S'normalize'
p230
I01
sS'fit_intercept'
p231
I01
sS'solver'
p232
g6
(g7
(S'S14'
I0
I1
tRp233
(I3
S'|'
NNNI14
I1
I0
tbS'dense_cholesky'
tRp234
sS'max_iter'
p235
I18
sS'tol'
p236
F0.0027349456667390298
sS'alpha'
p237
F0.51650227250578118
sa(dp238
S'normalize'
p239
I01
sS'fit_intercept'
p240
I01
sS'solver'
p241
g6
(g7
(S'S14'
I0
I1
tRp242
(I3
S'|'
NNNI14
I1
I0
tbS'dense_cholesky'
tRp243
sS'max_iter'
p244
I4
sS'tol'
p245
F0.00057032697388103703
sS'alpha'
p246
F0.33228243292784798
sa(dp247
S'normalize'
p248
I01
sS'fit_intercept'
p249
I01
sS'solver'
p250
g6
(g7
(S'S14'
I0
I1
tRp251
(I3
S'|'
NNNI14
I1
I0
tbS'dense_cholesky'
tRp252
sS'max_iter'
p253
I1
sS'tol'
p254
F0.00056290480186010992
sS'alpha'
p255
F1.077033917275446
sa(dp256
S'normalize'
p257
I00
sS'fit_intercept'
p258
I01
sS'solver'
p259
g6
(g7
(S'S14'
I0
I1
tRp260
(I3
S'|'
NNNI14
I1
I0
tbS'dense_cholesky'
tRp261
sS'max_iter'
p262
I11
sS'tol'
p263
F0.00061723601914829044
sS'alpha'
p264
F0.90429081646654308
sa(dp265
S'normalize'
p266
I00
sS'fit_intercept'
p267
I00
sS'solver'
p268
g6
(g7
(S'S14'
I0
I1
tRp269
(I3
S'|'
NNNI14
I1
I0
tbS'dense_cholesky'
tRp270
sS'max_iter'
p271
I6
sS'tol'
p272
F0.00082400527326818428
sS'alpha'
p273
F0.76914735129900202
sa(dp274
S'normalize'
p275
I00
sS'fit_intercept'
p276
I00
sS'solver'
p277
g6
(g7
(S'S14'
I0
I1
tRp278
(I3
S'|'
NNNI14
I1
I0
tbS'dense_cholesky'
tRp279
sS'max_iter'
p280
I2
sS'tol'
p281
F0.00082134072136059424
sS'alpha'
p282
F2.6909875197769524
sa(dp283
S'normalize'
p284
I00
sS'fit_intercept'
p285
I00
sS'solver'
p286
g6
(g7
(S'S14'
I0
I1
tRp287
(I3
S'|'
NNNI14
I1
I0
tbS'dense_cholesky'
tRp288
sS'max_iter'
p289
I6
sS'tol'
p290
F0.0006688591230811302
sS'alpha'
p291
F0.46557840428139985
sa(dp292
S'normalize'
p293
I00
sS'fit_intercept'
p294
I00
sS'solver'
p295
g6
(g7
(S'S14'
I0
I1
tRp296
(I3
S'|'
NNNI14
I1
I0
tbS'dense_cholesky'
tRp297
sS'max_iter'
p298
I6
sS'tol'
p299
F0.0014088231522768994
sS'alpha'
p300
F0.46973749732175385
sa(dp301
S'normalize'
p302
I00
sS'fit_intercept'
p303
I00
sS'solver'
p304
g6
(g7
(S'S14'
I0
I1
tRp305
(I3
S'|'
NNNI14
I1
I0
tbS'dense_cholesky'
tRp306
sS'max_iter'
p307
I7
sS'tol'
p308
F0.00067686827263390694
sS'alpha'
p309
F1.18152593685223
sa.