(lp1
(dp2
S'warm_start'
p3
I01
sS'loss'
p4
cnumpy.core.multiarray
scalar
p5
(cnumpy
dtype
p6
(S'S3'
I0
I1
tRp7
(I3
S'|'
NNNI3
I1
I0
tbS'log'
tRp8
sS'shuffle'
p9
I01
sS'fit_intercept'
p10
I01
sS'l1_ratio'
p11
F0.45472373939031563
sS'learning_rate'
p12
g5
(g6
(S'S10'
I0
I1
tRp13
(I3
S'|'
NNNI10
I1
I0
tbS'invscaling'
tRp14
sS'n_iter'
p15
I1
sS'penalty'
p16
g5
(g6
(S'S10'
I0
I1
tRp17
(I3
S'|'
NNNI10
I1
I0
tbS'elasticnet'
tRp18
sS'power_t'
p19
F0.24116073854937425
sS'alpha'
p20
F0.0003419879990543691
sS'eta0'
p21
F0.52858356098903214
sS'class_weight'
p22
S'auto'
p23
sa(dp24
S'warm_start'
p25
I01
sS'loss'
p26
g5
(g6
(S'S3'
I0
I1
tRp27
(I3
S'|'
NNNI3
I1
I0
tbS'log'
tRp28
sS'shuffle'
p29
I00
sS'fit_intercept'
p30
I01
sS'l1_ratio'
p31
F0.83121559179905802
sS'learning_rate'
p32
g5
(g6
(S'S10'
I0
I1
tRp33
(I3
S'|'
NNNI10
I1
I0
tbS'invscaling'
tRp34
sS'n_iter'
p35
I14
sS'penalty'
p36
g5
(g6
(S'S10'
I0
I1
tRp37
(I3
S'|'
NNNI10
I1
I0
tbS'elasticnet'
tRp38
sS'power_t'
p39
F0.66151653061493609
sS'alpha'
p40
F8.7887677086474541e-05
sS'eta0'
p41
F0.35051110144960507
sS'class_weight'
p42
S'auto'
p43
sa(dp44
S'warm_start'
p45
I00
sS'n_iter'
p46
I2
sS'shuffle'
p47
I00
sS'fit_intercept'
p48
I01
sS'learning_rate'
p49
g5
(g6
(S'S8'
I0
I1
tRp50
(I3
S'|'
NNNI8
I1
I0
tbS'constant'
tRp51
sS'penalty'
p52
g5
(g6
(S'S2'
I0
I1
tRp53
(I3
S'|'
NNNI2
I1
I0
tbS'l2'
tRp54
sS'alpha'
p55
F0.00019543348096484102
sS'loss'
p56
g5
(g6
(S'S3'
I0
I1
tRp57
(I3
S'|'
NNNI3
I1
I0
tbS'log'
tRp58
sS'eta0'
p59
F0.54990154388978585
sS'class_weight'
p60
S'auto'
p61
sa(dp62
S'warm_start'
p63
I00
sS'loss'
p64
g5
(g6
(S'S3'
I0
I1
tRp65
(I3
S'|'
NNNI3
I1
I0
tbS'log'
tRp66
sS'shuffle'
p67
I01
sS'n_iter'
p68
I9
sS'learning_rate'
p69
g5
(g6
(S'S10'
I0
I1
tRp70
(I3
S'|'
NNNI10
I1
I0
tbS'invscaling'
tRp71
sS'fit_intercept'
p72
I01
sS'penalty'
p73
g5
(g6
(S'S2'
I0
I1
tRp74
(I3
S'|'
NNNI2
I1
I0
tbS'l1'
tRp75
sS'power_t'
p76
F0.9678151077434286
sS'alpha'
p77
F0.00019942051763719823
sS'eta0'
p78
F0.68630596034916591
sS'class_weight'
p79
S'auto'
p80
sa(dp81
S'warm_start'
p82
I00
sS'loss'
p83
g5
(g6
(S'S3'
I0
I1
tRp84
(I3
S'|'
NNNI3
I1
I0
tbS'log'
tRp85
sS'shuffle'
p86
I00
sS'n_iter'
p87
I15
sS'learning_rate'
p88
g5
(g6
(S'S10'
I0
I1
tRp89
(I3
S'|'
NNNI10
I1
I0
tbS'invscaling'
tRp90
sS'fit_intercept'
p91
I00
sS'penalty'
p92
g5
(g6
(S'S2'
I0
I1
tRp93
(I3
S'|'
NNNI2
I1
I0
tbS'l1'
tRp94
sS'power_t'
p95
F0.31958999214941075
sS'alpha'
p96
F7.0731637002200714e-05
sS'eta0'
p97
F0.13661192551682744
sS'class_weight'
p98
S'auto'
p99
sa(dp100
S'warm_start'
p101
I00
sS'loss'
p102
g5
(g6
(S'S5'
I0
I1
tRp103
(I3
S'|'
NNNI5
I1
I0
tbS'huber'
tRp104
sS'shuffle'
p105
I01
sS'fit_intercept'
p106
I00
sS'epsilon'
p107
F220.19265218398638
sS'learning_rate'
p108
g5
(g6
(S'S7'
I0
I1
tRp109
(I3
S'|'
NNNI7
I1
I0
tbS'optimal'
tRp110
sS'n_iter'
p111
I2
sS'penalty'
p112
g5
(g6
(S'S2'
I0
I1
tRp113
(I3
S'|'
NNNI2
I1
I0
tbS'l2'
tRp114
sS'alpha'
p115
F0.00021825921799097545
sS'eta0'
p116
F0.1784661599500903
sS'class_weight'
p117
Nsa(dp118
S'warm_start'
p119
I00
sS'loss'
p120
g5
(g6
(S'S5'
I0
I1
tRp121
(I3
S'|'
NNNI5
I1
I0
tbS'huber'
tRp122
sS'shuffle'
p123
I01
sS'fit_intercept'
p124
I00
sS'epsilon'
p125
F48.579949798039479
sS'learning_rate'
p126
g5
(g6
(S'S8'
I0
I1
tRp127
(I3
S'|'
NNNI8
I1
I0
tbS'constant'
tRp128
sS'n_iter'
p129
I17
sS'penalty'
p130
g5
(g6
(S'S2'
I0
I1
tRp131
(I3
S'|'
NNNI2
I1
I0
tbS'l1'
tRp132
sS'alpha'
p133
F0.00023262698965253559
sS'eta0'
p134
F0.49448363661231653
sS'class_weight'
p135
S'auto'
p136
sa(dp137
S'warm_start'
p138
I01
sS'loss'
p139
g5
(g6
(S'S14'
I0
I1
tRp140
(I3
S'|'
NNNI14
I1
I0
tbS'modified_huber'
tRp141
sS'shuffle'
p142
I00
sS'fit_intercept'
p143
I00
sS'l1_ratio'
p144
F0.27773474118703301
sS'learning_rate'
p145
g5
(g6
(S'S7'
I0
I1
tRp146
(I3
S'|'
NNNI7
I1
I0
tbS'optimal'
tRp147
sS'n_iter'
p148
I8
sS'penalty'
p149
g5
(g6
(S'S10'
I0
I1
tRp150
(I3
S'|'
NNNI10
I1
I0
tbS'elasticnet'
tRp151
sS'alpha'
p152
F0.00029874984137806413
sS'eta0'
p153
F0.40587631768710064
sS'class_weight'
p154
Nsa(dp155
S'warm_start'
p156
I01
sS'n_iter'
p157
I1
sS'shuffle'
p158
I01
sS'fit_intercept'
p159
I00
sS'learning_rate'
p160
g5
(g6
(S'S7'
I0
I1
tRp161
(I3
S'|'
NNNI7
I1
I0
tbS'optimal'
tRp162
sS'penalty'
p163
g5
(g6
(S'S2'
I0
I1
tRp164
(I3
S'|'
NNNI2
I1
I0
tbS'l2'
tRp165
sS'alpha'
p166
F0.00029798547138824714
sS'loss'
p167
g5
(g6
(S'S14'
I0
I1
tRp168
(I3
S'|'
NNNI14
I1
I0
tbS'modified_huber'
tRp169
sS'eta0'
p170
F0.80593298899886168
sS'class_weight'
p171
S'auto'
p172
sa(dp173
S'warm_start'
p174
I01
sS'n_iter'
p175
I9
sS'shuffle'
p176
I00
sS'fit_intercept'
p177
I00
sS'learning_rate'
p178
g5
(g6
(S'S7'
I0
I1
tRp179
(I3
S'|'
NNNI7
I1
I0
tbS'optimal'
tRp180
sS'penalty'
p181
g5
(g6
(S'S2'
I0
I1
tRp182
(I3
S'|'
NNNI2
I1
I0
tbS'l2'
tRp183
sS'alpha'
p184
F0.00018184663210465895
sS'loss'
p185
g5
(g6
(S'S14'
I0
I1
tRp186
(I3
S'|'
NNNI14
I1
I0
tbS'modified_huber'
tRp187
sS'eta0'
p188
F0.28666473966229433
sS'class_weight'
p189
Nsa(dp190
S'warm_start'
p191
I01
sS'n_iter'
p192
I4
sS'shuffle'
p193
I01
sS'fit_intercept'
p194
I01
sS'learning_rate'
p195
g5
(g6
(S'S8'
I0
I1
tRp196
(I3
S'|'
NNNI8
I1
I0
tbS'constant'
tRp197
sS'penalty'
p198
g5
(g6
(S'S2'
I0
I1
tRp199
(I3
S'|'
NNNI2
I1
I0
tbS'l1'
tRp200
sS'alpha'
p201
F0.00042562774734139063
sS'loss'
p202
g5
(g6
(S'S14'
I0
I1
tRp203
(I3
S'|'
NNNI14
I1
I0
tbS'modified_huber'
tRp204
sS'eta0'
p205
F0.28264906532489575
sS'class_weight'
p206
Nsa(dp207
S'warm_start'
p208
I00
sS'n_iter'
p209
I26
sS'shuffle'
p210
I00
sS'fit_intercept'
p211
I01
sS'learning_rate'
p212
g5
(g6
(S'S7'
I0
I1
tRp213
(I3
S'|'
NNNI7
I1
I0
tbS'optimal'
tRp214
sS'penalty'
p215
g5
(g6
(S'S2'
I0
I1
tRp216
(I3
S'|'
NNNI2
I1
I0
tbS'l1'
tRp217
sS'alpha'
p218
F0.00021367032139242657
sS'loss'
p219
g5
(g6
(S'S14'
I0
I1
tRp220
(I3
S'|'
NNNI14
I1
I0
tbS'modified_huber'
tRp221
sS'eta0'
p222
F0.75041838688847007
sS'class_weight'
p223
S'auto'
p224
sa(dp225
S'warm_start'
p226
I01
sS'loss'
p227
g5
(g6
(S'S5'
I0
I1
tRp228
(I3
S'|'
NNNI5
I1
I0
tbS'hinge'
tRp229
sS'shuffle'
p230
I01
sS'fit_intercept'
p231
I00
sS'l1_ratio'
p232
F0.56458903107074809
sS'learning_rate'
p233
g5
(g6
(S'S8'
I0
I1
tRp234
(I3
S'|'
NNNI8
I1
I0
tbS'constant'
tRp235
sS'n_iter'
p236
I15
sS'penalty'
p237
g5
(g6
(S'S10'
I0
I1
tRp238
(I3
S'|'
NNNI10
I1
I0
tbS'elasticnet'
tRp239
sS'alpha'
p240
F0.00016801628426979642
sS'eta0'
p241
F0.35169917256922967
sS'class_weight'
p242
Nsa(dp243
S'warm_start'
p244
I01
sS'n_iter'
p245
I24
sS'shuffle'
p246
I00
sS'fit_intercept'
p247
I00
sS'learning_rate'
p248
g5
(g6
(S'S8'
I0
I1
tRp249
(I3
S'|'
NNNI8
I1
I0
tbS'constant'
tRp250
sS'penalty'
p251
g5
(g6
(S'S2'
I0
I1
tRp252
(I3
S'|'
NNNI2
I1
I0
tbS'l1'
tRp253
sS'alpha'
p254
F0.0003714680025058959
sS'loss'
p255
g5
(g6
(S'S5'
I0
I1
tRp256
(I3
S'|'
NNNI5
I1
I0
tbS'hinge'
tRp257
sS'eta0'
p258
F0.5993518470166852
sS'class_weight'
p259
Nsa(dp260
S'warm_start'
p261
I00
sS'loss'
p262
g5
(g6
(S'S19'
I0
I1
tRp263
(I3
S'|'
NNNI19
I1
I0
tbS'epsilon_insensitive'
tRp264
sS'shuffle'
p265
I00
sS'fit_intercept'
p266
I01
sS'l1_ratio'
p267
F0.24188947292393781
sS'learning_rate'
p268
g5
(g6
(S'S7'
I0
I1
tRp269
(I3
S'|'
NNNI7
I1
I0
tbS'optimal'
tRp270
sS'n_iter'
p271
I13
sS'penalty'
p272
g5
(g6
(S'S10'
I0
I1
tRp273
(I3
S'|'
NNNI10
I1
I0
tbS'elasticnet'
tRp274
sS'alpha'
p275
F0.00031204895459399987
sS'epsilon'
p276
F71.751574991738991
sS'eta0'
p277
F0.97465413898484132
sS'class_weight'
p278
Nsa(dp279
S'warm_start'
p280
I01
sS'loss'
p281
g5
(g6
(S'S19'
I0
I1
tRp282
(I3
S'|'
NNNI19
I1
I0
tbS'epsilon_insensitive'
tRp283
sS'shuffle'
p284
I01
sS'fit_intercept'
p285
I00
sS'l1_ratio'
p286
F0.83146380839917933
sS'learning_rate'
p287
g5
(g6
(S'S7'
I0
I1
tRp288
(I3
S'|'
NNNI7
I1
I0
tbS'optimal'
tRp289
sS'n_iter'
p290
I2
sS'penalty'
p291
g5
(g6
(S'S10'
I0
I1
tRp292
(I3
S'|'
NNNI10
I1
I0
tbS'elasticnet'
tRp293
sS'alpha'
p294
F0.0001719791440058259
sS'epsilon'
p295
F64.448988241478261
sS'eta0'
p296
F0.0098721535970064389
sS'class_weight'
p297
S'auto'
p298
sa(dp299
S'warm_start'
p300
I01
sS'loss'
p301
g5
(g6
(S'S19'
I0
I1
tRp302
(I3
S'|'
NNNI19
I1
I0
tbS'epsilon_insensitive'
tRp303
sS'shuffle'
p304
I00
sS'fit_intercept'
p305
I00
sS'epsilon'
p306
F609.08015234871186
sS'learning_rate'
p307
g5
(g6
(S'S7'
I0
I1
tRp308
(I3
S'|'
NNNI7
I1
I0
tbS'optimal'
tRp309
sS'n_iter'
p310
I25
sS'penalty'
p311
g5
(g6
(S'S2'
I0
I1
tRp312
(I3
S'|'
NNNI2
I1
I0
tbS'l2'
tRp313
sS'alpha'
p314
F0.00024730705647573289
sS'eta0'
p315
F0.86125602648200728
sS'class_weight'
p316
S'auto'
p317
sa(dp318
S'warm_start'
p319
I01
sS'loss'
p320
g5
(g6
(S'S19'
I0
I1
tRp321
(I3
S'|'
NNNI19
I1
I0
tbS'epsilon_insensitive'
tRp322
sS'shuffle'
p323
I00
sS'fit_intercept'
p324
I01
sS'epsilon'
p325
F82.196765320103438
sS'learning_rate'
p326
g5
(g6
(S'S7'
I0
I1
tRp327
(I3
S'|'
NNNI7
I1
I0
tbS'optimal'
tRp328
sS'n_iter'
p329
I2
sS'penalty'
p330
g5
(g6
(S'S2'
I0
I1
tRp331
(I3
S'|'
NNNI2
I1
I0
tbS'l1'
tRp332
sS'alpha'
p333
F0.00029864802238136834
sS'eta0'
p334
F0.12495517830794545
sS'class_weight'
p335
S'auto'
p336
sa(dp337
S'warm_start'
p338
I00
sS'loss'
p339
g5
(g6
(S'S10'
I0
I1
tRp340
(I3
S'|'
NNNI10
I1
I0
tbS'perceptron'
tRp341
sS'shuffle'
p342
I01
sS'fit_intercept'
p343
I01
sS'l1_ratio'
p344
F0.2440843794969767
sS'learning_rate'
p345
g5
(g6
(S'S8'
I0
I1
tRp346
(I3
S'|'
NNNI8
I1
I0
tbS'constant'
tRp347
sS'n_iter'
p348
I10
sS'penalty'
p349
g5
(g6
(S'S10'
I0
I1
tRp350
(I3
S'|'
NNNI10
I1
I0
tbS'elasticnet'
tRp351
sS'alpha'
p352
F0.00019214383965882693
sS'eta0'
p353
F0.76534968658349267
sS'class_weight'
p354
Nsa(dp355
S'warm_start'
p356
I01
sS'loss'
p357
g5
(g6
(S'S10'
I0
I1
tRp358
(I3
S'|'
NNNI10
I1
I0
tbS'perceptron'
tRp359
sS'shuffle'
p360
I00
sS'fit_intercept'
p361
I01
sS'l1_ratio'
p362
F0.76266077216325934
sS'learning_rate'
p363
g5
(g6
(S'S7'
I0
I1
tRp364
(I3
S'|'
NNNI7
I1
I0
tbS'optimal'
tRp365
sS'n_iter'
p366
I5
sS'penalty'
p367
g5
(g6
(S'S10'
I0
I1
tRp368
(I3
S'|'
NNNI10
I1
I0
tbS'elasticnet'
tRp369
sS'alpha'
p370
F0.00012383755619331101
sS'eta0'
p371
F0.052448289153977701
sS'class_weight'
p372
S'auto'
p373
sa(dp374
S'warm_start'
p375
I00
sS'n_iter'
p376
I6
sS'shuffle'
p377
I01
sS'fit_intercept'
p378
I00
sS'learning_rate'
p379
g5
(g6
(S'S8'
I0
I1
tRp380
(I3
S'|'
NNNI8
I1
I0
tbS'constant'
tRp381
sS'penalty'
p382
g5
(g6
(S'S2'
I0
I1
tRp383
(I3
S'|'
NNNI2
I1
I0
tbS'l1'
tRp384
sS'alpha'
p385
F8.783883872107593e-05
sS'loss'
p386
g5
(g6
(S'S10'
I0
I1
tRp387
(I3
S'|'
NNNI10
I1
I0
tbS'perceptron'
tRp388
sS'eta0'
p389
F0.060419858548510619
sS'class_weight'
p390
S'auto'
p391
sa.