(cnumpy.core.multiarray
scalar
p1
(cnumpy
dtype
p2
(S'f8'
I0
I1
tRp3
(I3
S'<'
NNNI-1
I-1
I0
tbS'\xe7\xf2\xb2F\x94\xf7\xe6?'
tRp4
g1
(g3
S'\x11\x11\x11\x11Q\x12|?'
tRp5
(dp6
S'warm_start'
p7
I00
sS'n_iter'
p8
I26
sS'shuffle'
p9
I00
sS'fit_intercept'
p10
I01
sS'learning_rate'
p11
g1
(g2
(S'S7'
I0
I1
tRp12
(I3
S'|'
NNNI7
I1
I0
tbS'optimal'
tRp13
sS'penalty'
p14
g1
(g2
(S'S2'
I0
I1
tRp15
(I3
S'|'
NNNI2
I1
I0
tbS'l1'
tRp16
sS'eta0'
p17
F0.75041838688847007
sS'loss'
p18
g1
(g2
(S'S14'
I0
I1
tRp19
(I3
S'|'
NNNI14
I1
I0
tbS'modified_huber'
tRp20
sS'alpha'
p21
F0.00021367032139242657
sS'class_weight'
p22
S'auto'
p23
st.(cnumpy.core.multiarray
scalar
p1
(cnumpy
dtype
p2
(S'f8'
I0
I1
tRp3
(I3
S'<'
NNNI-1
I-1
I0
tbS'\x92\x92\x89\xe1,}\xc7\xbf'
tRp4
g1
(g3
S'""""\xe2.|?'
tRp5
(dp6
S'warm_start'
p7
I00
sS'loss'
p8
g1
(g2
(S'S5'
I0
I1
tRp9
(I3
S'|'
NNNI5
I1
I0
tbS'huber'
tRp10
sS'shuffle'
p11
I01
sS'fit_intercept'
p12
I00
sS'epsilon'
p13
F220.19265218398638
sS'learning_rate'
p14
g1
(g2
(S'S7'
I0
I1
tRp15
(I3
S'|'
NNNI7
I1
I0
tbS'optimal'
tRp16
sS'n_iter'
p17
I2
sS'penalty'
p18
g1
(g2
(S'S2'
I0
I1
tRp19
(I3
S'|'
NNNI2
I1
I0
tbS'l2'
tRp20
sS'eta0'
p21
F0.1784661599500903
sS'alpha'
p22
F0.00021825921799097545
sS'class_weight'
p23
Nst.(cnumpy.core.multiarray
scalar
p1
(cnumpy
dtype
p2
(S'f8'
I0
I1
tRp3
(I3
S'<'
NNNI-1
I-1
I0
tbS'~\x0e\xfa\xac\xb0\x0e\xba\xbf'
tRp4
g1
(g3
S'\x11\x11\x11\x11Q\x12o?'
tRp5
(dp6
S'warm_start'
p7
I00
sS'loss'
p8
g1
(g2
(S'S19'
I0
I1
tRp9
(I3
S'|'
NNNI19
I1
I0
tbS'epsilon_insensitive'
tRp10
sS'shuffle'
p11
I00
sS'fit_intercept'
p12
I01
sS'l1_ratio'
p13
F0.24188947292393781
sS'learning_rate'
p14
g1
(g2
(S'S7'
I0
I1
tRp15
(I3
S'|'
NNNI7
I1
I0
tbS'optimal'
tRp16
sS'n_iter'
p17
I13
sS'penalty'
p18
g1
(g2
(S'S10'
I0
I1
tRp19
(I3
S'|'
NNNI10
I1
I0
tbS'elasticnet'
tRp20
sS'eta0'
p21
F0.97465413898484132
sS'epsilon'
p22
F71.751574991738991
sS'alpha'
p23
F0.00031204895459399987
sS'class_weight'
p24
Nst.(cnumpy.core.multiarray
scalar
p1
(cnumpy
dtype
p2
(S'f8'
I0
I1
tRp3
(I3
S'<'
NNNI-1
I-1
I0
tbS'vt\x14\xaaN\xb0\xd8?'
tRp4
g1
(g3
S'DDDD\xf0\x1f\xa0?'
tRp5
(dp6
S'warm_start'
p7
I01
sS'loss'
p8
g1
(g2
(S'S5'
I0
I1
tRp9
(I3
S'|'
NNNI5
I1
I0
tbS'hinge'
tRp10
sS'shuffle'
p11
I01
sS'fit_intercept'
p12
I00
sS'l1_ratio'
p13
F0.56458903107074809
sS'learning_rate'
p14
g1
(g2
(S'S8'
I0
I1
tRp15
(I3
S'|'
NNNI8
I1
I0
tbS'constant'
tRp16
sS'n_iter'
p17
I15
sS'penalty'
p18
g1
(g2
(S'S10'
I0
I1
tRp19
(I3
S'|'
NNNI10
I1
I0
tbS'elasticnet'
tRp20
sS'eta0'
p21
F0.35169917256922967
sS'alpha'
p22
F0.00016801628426979642
sS'class_weight'
p23
Nst.(cnumpy.core.multiarray
scalar
p1
(cnumpy
dtype
p2
(S'f8'
I0
I1
tRp3
(I3
S'<'
NNNI-1
I-1
I0
tbS'E\xb1\xf8\xc6\x1ff\xde?'
tRp4
g1
(g3
S'\xab\xaa\xaa\xaaj\xe9o?'
tRp5
(dp6
S'warm_start'
p7
I01
sS'n_iter'
p8
I1
sS'shuffle'
p9
I01
sS'fit_intercept'
p10
I00
sS'learning_rate'
p11
g1
(g2
(S'S7'
I0
I1
tRp12
(I3
S'|'
NNNI7
I1
I0
tbS'optimal'
tRp13
sS'penalty'
p14
g1
(g2
(S'S2'
I0
I1
tRp15
(I3
S'|'
NNNI2
I1
I0
tbS'l2'
tRp16
sS'eta0'
p17
F0.80593298899886168
sS'loss'
p18
g1
(g2
(S'S14'
I0
I1
tRp19
(I3
S'|'
NNNI14
I1
I0
tbS'modified_huber'
tRp20
sS'alpha'
p21
F0.00029798547138824714
sS'class_weight'
p22
S'auto'
p23
st.(cnumpy.core.multiarray
scalar
p1
(cnumpy
dtype
p2
(S'f8'
I0
I1
tRp3
(I3
S'<'
NNNI-1
I-1
I0
tbS'\xae\x83\xb3\\^\xe8\xdd?'
tRp4
g1
(g3
S'\xcd\xcc\xcc\xcc<\xcc\x81?'
tRp5
(dp6
S'warm_start'
p7
I01
sS'loss'
p8
g1
(g2
(S'S3'
I0
I1
tRp9
(I3
S'|'
NNNI3
I1
I0
tbS'log'
tRp10
sS'shuffle'
p11
I00
sS'fit_intercept'
p12
I01
sS'l1_ratio'
p13
F0.83121559179905802
sS'learning_rate'
p14
g1
(g2
(S'S10'
I0
I1
tRp15
(I3
S'|'
NNNI10
I1
I0
tbS'invscaling'
tRp16
sS'n_iter'
p17
I14
sS'penalty'
p18
g1
(g2
(S'S10'
I0
I1
tRp19
(I3
S'|'
NNNI10
I1
I0
tbS'elasticnet'
tRp20
sS'power_t'
p21
F0.66151653061493609
sS'eta0'
p22
F0.35051110144960507
sS'alpha'
p23
F8.7887677086474541e-05
sS'class_weight'
p24
S'auto'
p25
st.(cnumpy.core.multiarray
scalar
p1
(cnumpy
dtype
p2
(S'f8'
I0
I1
tRp3
(I3
S'<'
NNNI-1
I-1
I0
tbS'\xd1\x1d\x9c#\xf1G\xe6?'
tRp4
g1
(g3
S'\xde\xdd\xdd\xdd]_n?'
tRp5
(dp6
S'warm_start'
p7
I01
sS'n_iter'
p8
I9
sS'shuffle'
p9
I00
sS'fit_intercept'
p10
I00
sS'learning_rate'
p11
g1
(g2
(S'S7'
I0
I1
tRp12
(I3
S'|'
NNNI7
I1
I0
tbS'optimal'
tRp13
sS'penalty'
p14
g1
(g2
(S'S2'
I0
I1
tRp15
(I3
S'|'
NNNI2
I1
I0
tbS'l2'
tRp16
sS'eta0'
p17
F0.28666473966229433
sS'loss'
p18
g1
(g2
(S'S14'
I0
I1
tRp19
(I3
S'|'
NNNI14
I1
I0
tbS'modified_huber'
tRp20
sS'alpha'
p21
F0.00018184663210465895
sS'class_weight'
p22
Nst.(cnumpy.core.multiarray
scalar
p1
(cnumpy
dtype
p2
(S'f8'
I0
I1
tRp3
(I3
S'<'
NNNI-1
I-1
I0
tbS'\xf6K\x18\x10i5\xd7?'
tRp4
g1
(g3
S'3333\xab\xcc\x9e?'
tRp5
(dp6
S'warm_start'
p7
I00
sS'loss'
p8
g1
(g2
(S'S3'
I0
I1
tRp9
(I3
S'|'
NNNI3
I1
I0
tbS'log'
tRp10
sS'shuffle'
p11
I01
sS'fit_intercept'
p12
I01
sS'learning_rate'
p13
g1
(g2
(S'S10'
I0
I1
tRp14
(I3
S'|'
NNNI10
I1
I0
tbS'invscaling'
tRp15
sS'n_iter'
p16
I9
sS'penalty'
p17
g1
(g2
(S'S2'
I0
I1
tRp18
(I3
S'|'
NNNI2
I1
I0
tbS'l1'
tRp19
sS'power_t'
p20
F0.9678151077434286
sS'eta0'
p21
F0.68630596034916591
sS'alpha'
p22
F0.00019942051763719823
sS'class_weight'
p23
S'auto'
p24
st.(cnumpy.core.multiarray
scalar
p1
(cnumpy
dtype
p2
(S'f8'
I0
I1
tRp3
(I3
S'<'
NNNI-1
I-1
I0
tbS'~\x0e\xfa\xac\xb0\x0e\xba\xbf'
tRp4
g1
(g3
S'UUUUU\xa4a?'
tRp5
(dp6
S'warm_start'
p7
I01
sS'loss'
p8
g1
(g2
(S'S19'
I0
I1
tRp9
(I3
S'|'
NNNI19
I1
I0
tbS'epsilon_insensitive'
tRp10
sS'shuffle'
p11
I00
sS'fit_intercept'
p12
I01
sS'epsilon'
p13
F82.196765320103438
sS'learning_rate'
p14
g1
(g2
(S'S7'
I0
I1
tRp15
(I3
S'|'
NNNI7
I1
I0
tbS'optimal'
tRp16
sS'n_iter'
p17
I2
sS'penalty'
p18
g1
(g2
(S'S2'
I0
I1
tRp19
(I3
S'|'
NNNI2
I1
I0
tbS'l1'
tRp20
sS'eta0'
p21
F0.12495517830794545
sS'alpha'
p22
F0.00029864802238136834
sS'class_weight'
p23
S'auto'
p24
st.(cnumpy.core.multiarray
scalar
p1
(cnumpy
dtype
p2
(S'f8'
I0
I1
tRp3
(I3
S'<'
NNNI-1
I-1
I0
tbS'=\xd6s\x98\xd4\xf9\xe6?'
tRp4
g1
(g3
S'""""\xa21n?'
tRp5
(dp6
S'warm_start'
p7
I01
sS'loss'
p8
g1
(g2
(S'S14'
I0
I1
tRp9
(I3
S'|'
NNNI14
I1
I0
tbS'modified_huber'
tRp10
sS'shuffle'
p11
I00
sS'fit_intercept'
p12
I00
sS'l1_ratio'
p13
F0.27773474118703301
sS'learning_rate'
p14
g1
(g2
(S'S7'
I0
I1
tRp15
(I3
S'|'
NNNI7
I1
I0
tbS'optimal'
tRp16
sS'n_iter'
p17
I8
sS'penalty'
p18
g1
(g2
(S'S10'
I0
I1
tRp19
(I3
S'|'
NNNI10
I1
I0
tbS'elasticnet'
tRp20
sS'eta0'
p21
F0.40587631768710064
sS'alpha'
p22
F0.00029874984137806413
sS'class_weight'
p23
Nst.(cnumpy.core.multiarray
scalar
p1
(cnumpy
dtype
p2
(S'f8'
I0
I1
tRp3
(I3
S'<'
NNNI-1
I-1
I0
tbS'\x1b6Glf\n\xd1?'
tRp4
g1
(g3
S'\x9a\x99\x99\x99\xd9\xddg?'
tRp5
(dp6
S'warm_start'
p7
I01
sS'loss'
p8
g1
(g2
(S'S10'
I0
I1
tRp9
(I3
S'|'
NNNI10
I1
I0
tbS'perceptron'
tRp10
sS'shuffle'
p11
I00
sS'fit_intercept'
p12
I01
sS'l1_ratio'
p13
F0.76266077216325934
sS'learning_rate'
p14
g1
(g2
(S'S7'
I0
I1
tRp15
(I3
S'|'
NNNI7
I1
I0
tbS'optimal'
tRp16
sS'n_iter'
p17
I5
sS'penalty'
p18
g1
(g2
(S'S10'
I0
I1
tRp19
(I3
S'|'
NNNI10
I1
I0
tbS'elasticnet'
tRp20
sS'eta0'
p21
F0.052448289153977701
sS'alpha'
p22
F0.00012383755619331101
sS'class_weight'
p23
S'auto'
p24
st.(cnumpy.core.multiarray
scalar
p1
(cnumpy
dtype
p2
(S'f8'
I0
I1
tRp3
(I3
S'<'
NNNI-1
I-1
I0
tbS'\x1a\xbc\xc9\x88$\x85\xd3?'
tRp4
g1
(g3
S'""""*\xf0\x9b?'
tRp5
(dp6
S'warm_start'
p7
I00
sS'n_iter'
p8
I6
sS'shuffle'
p9
I01
sS'fit_intercept'
p10
I00
sS'learning_rate'
p11
g1
(g2
(S'S8'
I0
I1
tRp12
(I3
S'|'
NNNI8
I1
I0
tbS'constant'
tRp13
sS'penalty'
p14
g1
(g2
(S'S2'
I0
I1
tRp15
(I3
S'|'
NNNI2
I1
I0
tbS'l1'
tRp16
sS'eta0'
p17
F0.060419858548510619
sS'loss'
p18
g1
(g2
(S'S10'
I0
I1
tRp19
(I3
S'|'
NNNI10
I1
I0
tbS'perceptron'
tRp20
sS'alpha'
p21
F8.783883872107593e-05
sS'class_weight'
p22
S'auto'
p23
st.(cnumpy.core.multiarray
scalar
p1
(cnumpy
dtype
p2
(S'f8'
I0
I1
tRp3
(I3
S'<'
NNNI-1
I-1
I0
tbS'\xb3\xcb2Tn\x8d\xe3?'
tRp4
g1
(g3
S'\x11\x11\x11\x11\x11\xddc?'
tRp5
(dp6
S'warm_start'
p7
I00
sS'n_iter'
p8
I2
sS'shuffle'
p9
I00
sS'fit_intercept'
p10
I01
sS'learning_rate'
p11
g1
(g2
(S'S8'
I0
I1
tRp12
(I3
S'|'
NNNI8
I1
I0
tbS'constant'
tRp13
sS'penalty'
p14
g1
(g2
(S'S2'
I0
I1
tRp15
(I3
S'|'
NNNI2
I1
I0
tbS'l2'
tRp16
sS'eta0'
p17
F0.54990154388978585
sS'loss'
p18
g1
(g2
(S'S3'
I0
I1
tRp19
(I3
S'|'
NNNI3
I1
I0
tbS'log'
tRp20
sS'alpha'
p21
F0.00019543348096484102
sS'class_weight'
p22
S'auto'
p23
st.(cnumpy.core.multiarray
scalar
p1
(cnumpy
dtype
p2
(S'f8'
I0
I1
tRp3
(I3
S'<'
NNNI-1
I-1
I0
tbS'~\x0e\xfa\xac\xb0\x0e\xba\xbf'
tRp4
g1
(g3
S'\xcd\xcc\xcc\xcc\xcc\xe2}?'
tRp5
(dp6
S'warm_start'
p7
I01
sS'loss'
p8
g1
(g2
(S'S19'
I0
I1
tRp9
(I3
S'|'
NNNI19
I1
I0
tbS'epsilon_insensitive'
tRp10
sS'shuffle'
p11
I00
sS'fit_intercept'
p12
I00
sS'epsilon'
p13
F609.08015234871186
sS'learning_rate'
p14
g1
(g2
(S'S7'
I0
I1
tRp15
(I3
S'|'
NNNI7
I1
I0
tbS'optimal'
tRp16
sS'n_iter'
p17
I25
sS'penalty'
p18
g1
(g2
(S'S2'
I0
I1
tRp19
(I3
S'|'
NNNI2
I1
I0
tbS'l2'
tRp20
sS'eta0'
p21
F0.86125602648200728
sS'alpha'
p22
F0.00024730705647573289
sS'class_weight'
p23
S'auto'
p24
st.(cnumpy.core.multiarray
scalar
p1
(cnumpy
dtype
p2
(S'f8'
I0
I1
tRp3
(I3
S'<'
NNNI-1
I-1
I0
tbS'B\xeaD\xe1\x92\x8e\xe2?'
tRp4
g1
(g3
S'"""""fv?'
tRp5
(dp6
S'warm_start'
p7
I01
sS'loss'
p8
g1
(g2
(S'S3'
I0
I1
tRp9
(I3
S'|'
NNNI3
I1
I0
tbS'log'
tRp10
sS'shuffle'
p11
I01
sS'fit_intercept'
p12
I01
sS'l1_ratio'
p13
F0.45472373939031563
sS'learning_rate'
p14
g1
(g2
(S'S10'
I0
I1
tRp15
(I3
S'|'
NNNI10
I1
I0
tbS'invscaling'
tRp16
sS'n_iter'
p17
I1
sS'penalty'
p18
g1
(g2
(S'S10'
I0
I1
tRp19
(I3
S'|'
NNNI10
I1
I0
tbS'elasticnet'
tRp20
sS'power_t'
p21
F0.24116073854937425
sS'eta0'
p22
F0.52858356098903214
sS'alpha'
p23
F0.0003419879990543691
sS'class_weight'
p24
S'auto'
p25
st.(cnumpy.core.multiarray
scalar
p1
(cnumpy
dtype
p2
(S'f8'
I0
I1
tRp3
(I3
S'<'
NNNI-1
I-1
I0
tbS'}]\xc6 p\xb3\xe1?'
tRp4
g1
(g3
S'DDDD$\x95~?'
tRp5
(dp6
S'warm_start'
p7
I00
sS'loss'
p8
g1
(g2
(S'S3'
I0
I1
tRp9
(I3
S'|'
NNNI3
I1
I0
tbS'log'
tRp10
sS'shuffle'
p11
I00
sS'fit_intercept'
p12
I00
sS'learning_rate'
p13
g1
(g2
(S'S10'
I0
I1
tRp14
(I3
S'|'
NNNI10
I1
I0
tbS'invscaling'
tRp15
sS'n_iter'
p16
I15
sS'penalty'
p17
g1
(g2
(S'S2'
I0
I1
tRp18
(I3
S'|'
NNNI2
I1
I0
tbS'l1'
tRp19
sS'power_t'
p20
F0.31958999214941075
sS'eta0'
p21
F0.13661192551682744
sS'alpha'
p22
F7.0731637002200714e-05
sS'class_weight'
p23
S'auto'
p24
st.(cnumpy.core.multiarray
scalar
p1
(cnumpy
dtype
p2
(S'f8'
I0
I1
tRp3
(I3
S'<'
NNNI-1
I-1
I0
tbS'v\xd4L\xcd\xc8\xab\xc7\xbf'
tRp4
g1
(g3
S'\xbc\xbb\xbb\xbbsf\xae?'
tRp5
(dp6
S'warm_start'
p7
I00
sS'loss'
p8
g1
(g2
(S'S5'
I0
I1
tRp9
(I3
S'|'
NNNI5
I1
I0
tbS'huber'
tRp10
sS'shuffle'
p11
I01
sS'fit_intercept'
p12
I00
sS'epsilon'
p13
F48.579949798039479
sS'learning_rate'
p14
g1
(g2
(S'S8'
I0
I1
tRp15
(I3
S'|'
NNNI8
I1
I0
tbS'constant'
tRp16
sS'n_iter'
p17
I17
sS'penalty'
p18
g1
(g2
(S'S2'
I0
I1
tRp19
(I3
S'|'
NNNI2
I1
I0
tbS'l1'
tRp20
sS'eta0'
p21
F0.49448363661231653
sS'alpha'
p22
F0.00023262698965253559
sS'class_weight'
p23
S'auto'
p24
st.(cnumpy.core.multiarray
scalar
p1
(cnumpy
dtype
p2
(S'f8'
I0
I1
tRp3
(I3
S'<'
NNNI-1
I-1
I0
tbS'~\x0e\xfa\xac\xb0\x0e\xba\xbf'
tRp4
g1
(g3
S'UUUUEy\x80?'
tRp5
(dp6
S'warm_start'
p7
I01
sS'loss'
p8
g1
(g2
(S'S19'
I0
I1
tRp9
(I3
S'|'
NNNI19
I1
I0
tbS'epsilon_insensitive'
tRp10
sS'shuffle'
p11
I01
sS'fit_intercept'
p12
I00
sS'l1_ratio'
p13
F0.83146380839917933
sS'learning_rate'
p14
g1
(g2
(S'S7'
I0
I1
tRp15
(I3
S'|'
NNNI7
I1
I0
tbS'optimal'
tRp16
sS'n_iter'
p17
I2
sS'penalty'
p18
g1
(g2
(S'S10'
I0
I1
tRp19
(I3
S'|'
NNNI10
I1
I0
tbS'elasticnet'
tRp20
sS'eta0'
p21
F0.0098721535970064389
sS'epsilon'
p22
F64.448988241478261
sS'alpha'
p23
F0.0001719791440058259
sS'class_weight'
p24
S'auto'
p25
st.(cnumpy.core.multiarray
scalar
p1
(cnumpy
dtype
p2
(S'f8'
I0
I1
tRp3
(I3
S'<'
NNNI-1
I-1
I0
tbS')\x8dE\x8bk\x92\xdb?'
tRp4
g1
(g3
S'\xef\xee\xee\xeeNM|?'
tRp5
(dp6
S'warm_start'
p7
I01
sS'n_iter'
p8
I24
sS'shuffle'
p9
I00
sS'fit_intercept'
p10
I00
sS'learning_rate'
p11
g1
(g2
(S'S8'
I0
I1
tRp12
(I3
S'|'
NNNI8
I1
I0
tbS'constant'
tRp13
sS'penalty'
p14
g1
(g2
(S'S2'
I0
I1
tRp15
(I3
S'|'
NNNI2
I1
I0
tbS'l1'
tRp16
sS'eta0'
p17
F0.5993518470166852
sS'loss'
p18
g1
(g2
(S'S5'
I0
I1
tRp19
(I3
S'|'
NNNI5
I1
I0
tbS'hinge'
tRp20
sS'alpha'
p21
F0.0003714680025058959
sS'class_weight'
p22
Nst.(cnumpy.core.multiarray
scalar
p1
(cnumpy
dtype
p2
(S'f8'
I0
I1
tRp3
(I3
S'<'
NNNI-1
I-1
I0
tbS'\x86DOV\x98\x8e\xe4?'
tRp4
g1
(g3
S"wwww'M\x92?"
tRp5
(dp6
S'warm_start'
p7
I01
sS'n_iter'
p8
I4
sS'shuffle'
p9
I01
sS'fit_intercept'
p10
I01
sS'learning_rate'
p11
g1
(g2
(S'S8'
I0
I1
tRp12
(I3
S'|'
NNNI8
I1
I0
tbS'constant'
tRp13
sS'penalty'
p14
g1
(g2
(S'S2'
I0
I1
tRp15
(I3
S'|'
NNNI2
I1
I0
tbS'l1'
tRp16
sS'eta0'
p17
F0.28264906532489575
sS'loss'
p18
g1
(g2
(S'S14'
I0
I1
tRp19
(I3
S'|'
NNNI14
I1
I0
tbS'modified_huber'
tRp20
sS'alpha'
p21
F0.00042562774734139063
sS'class_weight'
p22
Nst.(cnumpy.core.multiarray
scalar
p1
(cnumpy
dtype
p2
(S'f8'
I0
I1
tRp3
(I3
S'<'
NNNI-1
I-1
I0
tbS'\x15\x9c\xb2\xc1\xc2#\xd2?'
tRp4
g1
(g3
S"3333'\xf6\xa0?"
tRp5
(dp6
S'warm_start'
p7
I00
sS'loss'
p8
g1
(g2
(S'S10'
I0
I1
tRp9
(I3
S'|'
NNNI10
I1
I0
tbS'perceptron'
tRp10
sS'shuffle'
p11
I01
sS'fit_intercept'
p12
I01
sS'l1_ratio'
p13
F0.2440843794969767
sS'learning_rate'
p14
g1
(g2
(S'S8'
I0
I1
tRp15
(I3
S'|'
NNNI8
I1
I0
tbS'constant'
tRp16
sS'n_iter'
p17
I10
sS'penalty'
p18
g1
(g2
(S'S10'
I0
I1
tRp19
(I3
S'|'
NNNI10
I1
I0
tbS'elasticnet'
tRp20
sS'eta0'
p21
F0.76534968658349267
sS'alpha'
p22
F0.00019214383965882693
sS'class_weight'
p23
Nst.