(lp1
(dp2
S'kernel'
p3
cnumpy.core.multiarray
scalar
p4
(cnumpy
dtype
p5
(S'S3'
I0
I1
tRp6
(I3
S'|'
NNNI3
I1
I0
tbS'rbf'
tRp7
sS'C'
F0.00244097313008037
sS'tol'
p8
F0.013205656702247433
sS'shrinking'
p9
I01
sS'gamma'
p10
F0.28810820454686004
sS'class_weight'
p11
S'auto'
p12
sa(dp13
S'kernel'
p14
g4
(g5
(S'S3'
I0
I1
tRp15
(I3
S'|'
NNNI3
I1
I0
tbS'rbf'
tRp16
sS'C'
F44.535642093642856
sS'tol'
p17
F0.023215273585347685
sS'shrinking'
p18
I01
sS'gamma'
p19
F0.022083434609424857
sS'class_weight'
p20
S'auto'
p21
sa(dp22
S'kernel'
p23
g4
(g5
(S'S3'
I0
I1
tRp24
(I3
S'|'
NNNI3
I1
I0
tbS'rbf'
tRp25
sS'C'
F12.091416954315994
sS'tol'
p26
F0.014019461960089194
sS'shrinking'
p27
I01
sS'gamma'
p28
F0.77844309126574618
sS'class_weight'
p29
S'auto'
p30
sa(dp31
S'kernel'
p32
g4
(g5
(S'S3'
I0
I1
tRp33
(I3
S'|'
NNNI3
I1
I0
tbS'rbf'
tRp34
sS'C'
F0.010717523428637821
sS'tol'
p35
F0.0047679568962571799
sS'shrinking'
p36
I00
sS'gamma'
p37
F0.22159949886152708
sS'class_weight'
p38
S'auto'
p39
sa(dp40
S'kernel'
p41
g4
(g5
(S'S3'
I0
I1
tRp42
(I3
S'|'
NNNI3
I1
I0
tbS'rbf'
tRp43
sS'C'
F0.051794951440272644
sS'tol'
p44
F0.0071056880787646335
sS'shrinking'
p45
I00
sS'gamma'
p46
F0.025911568318933598
sS'class_weight'
p47
S'auto'
p48
sa(dp49
S'kernel'
p50
g4
(g5
(S'S3'
I0
I1
tRp51
(I3
S'|'
NNNI3
I1
I0
tbS'rbf'
tRp52
sS'C'
F0.029323412723356052
sS'tol'
p53
F0.010971540162552503
sS'shrinking'
p54
I00
sS'gamma'
p55
F0.92052574268958942
sS'class_weight'
p56
S'auto'
p57
sa(dp58
S'kernel'
p59
g4
(g5
(S'S3'
I0
I1
tRp60
(I3
S'|'
NNNI3
I1
I0
tbS'rbf'
tRp61
sS'C'
F3.0390885231530524
sS'tol'
p62
F0.0041047632686634118
sS'shrinking'
p63
I00
sS'gamma'
p64
F0.73432461459489518
sS'class_weight'
p65
Nsa(dp66
S'kernel'
p67
g4
(g5
(S'S3'
I0
I1
tRp68
(I3
S'|'
NNNI3
I1
I0
tbS'rbf'
tRp69
sS'C'
F0.0254559652822842
sS'tol'
p70
F0.0028342175317249288
sS'shrinking'
p71
I00
sS'gamma'
p72
F0.62883041245212579
sS'class_weight'
p73
Nsa(dp74
S'kernel'
p75
g4
(g5
(S'S3'
I0
I1
tRp76
(I3
S'|'
NNNI3
I1
I0
tbS'rbf'
tRp77
sS'C'
F2.777570170570566
sS'tol'
p78
F0.0058817307092305553
sS'shrinking'
p79
I00
sS'gamma'
p80
F0.20875111214153308
sS'class_weight'
p81
Nsa(dp82
S'kernel'
p83
g4
(g5
(S'S6'
I0
I1
tRp84
(I3
S'|'
NNNI6
I1
I0
tbS'linear'
tRp85
sS'C'
F0.0084423767033271827
sS'shrinking'
p86
I01
sS'tol'
p87
F0.0054500234368910997
sS'class_weight'
p88
S'auto'
p89
sa(dp90
S'kernel'
p91
g4
(g5
(S'S6'
I0
I1
tRp92
(I3
S'|'
NNNI6
I1
I0
tbS'linear'
tRp93
sS'C'
F0.003921095781703644
sS'shrinking'
p94
I01
sS'tol'
p95
F0.0052931005636087129
sS'class_weight'
p96
Nsa(dp97
S'kernel'
p98
g4
(g5
(S'S6'
I0
I1
tRp99
(I3
S'|'
NNNI6
I1
I0
tbS'linear'
tRp100
sS'C'
F0.0013981838283902439
sS'shrinking'
p101
I01
sS'tol'
p102
F0.012631819960176163
sS'class_weight'
p103
Nsa(dp104
S'kernel'
p105
g4
(g5
(S'S6'
I0
I1
tRp106
(I3
S'|'
NNNI6
I1
I0
tbS'linear'
tRp107
sS'C'
F1607.1010287295785
sS'shrinking'
p108
I01
sS'tol'
p109
F0.0025591175465495618
sS'class_weight'
p110
Nsa(dp111
S'kernel'
p112
g4
(g5
(S'S6'
I0
I1
tRp113
(I3
S'|'
NNNI6
I1
I0
tbS'linear'
tRp114
sS'C'
F209.61308538911183
sS'shrinking'
p115
I01
sS'tol'
p116
F0.0037838557219122106
sS'class_weight'
p117
Nsa(dp118
S'kernel'
p119
g4
(g5
(S'S6'
I0
I1
tRp120
(I3
S'|'
NNNI6
I1
I0
tbS'linear'
tRp121
sS'C'
F0.00053296606704769948
sS'shrinking'
p122
I01
sS'tol'
p123
F0.0066624042797890056
sS'class_weight'
p124
Nsa(dp125
S'kernel'
p126
g4
(g5
(S'S6'
I0
I1
tRp127
(I3
S'|'
NNNI6
I1
I0
tbS'linear'
tRp128
sS'C'
F5.9823304677034885
sS'shrinking'
p129
I00
sS'tol'
p130
F0.011285294166281703
sS'class_weight'
p131
S'auto'
p132
sa(dp133
S'kernel'
p134
g4
(g5
(S'S6'
I0
I1
tRp135
(I3
S'|'
NNNI6
I1
I0
tbS'linear'
tRp136
sS'C'
F233.29248153257251
sS'shrinking'
p137
I00
sS'tol'
p138
F0.0049063061178736371
sS'class_weight'
p139
S'auto'
p140
sa(dp141
S'kernel'
p142
g4
(g5
(S'S6'
I0
I1
tRp143
(I3
S'|'
NNNI6
I1
I0
tbS'linear'
tRp144
sS'C'
F0.019987481620007526
sS'shrinking'
p145
I00
sS'tol'
p146
F0.0031166031159303702
sS'class_weight'
p147
S'auto'
p148
sa(dp149
S'kernel'
p150
g4
(g5
(S'S6'
I0
I1
tRp151
(I3
S'|'
NNNI6
I1
I0
tbS'linear'
tRp152
sS'C'
F0.00040403905813114261
sS'shrinking'
p153
I00
sS'tol'
p154
F0.0048244724707188717
sS'class_weight'
p155
Nsa(dp156
S'kernel'
p157
g4
(g5
(S'S4'
I0
I1
tRp158
(I3
S'|'
NNNI4
I1
I0
tbS'poly'
tRp159
sS'C'
F6758.561106325099
sS'degree'
p160
I5
sS'coef0'
p161
F0.0040372182597100403
sS'tol'
p162
F0.0057345291465055181
sS'shrinking'
p163
I01
sS'gamma'
p164
F0.35169917256922967
sS'class_weight'
p165
Nsa(dp166
S'kernel'
p167
g4
(g5
(S'S4'
I0
I1
tRp168
(I3
S'|'
NNNI4
I1
I0
tbS'poly'
tRp169
sS'C'
F0.025414510941297225
sS'degree'
p170
I2
sS'coef0'
p171
F0.34270541917761788
sS'tol'
p172
F0.0054597374219484684
sS'shrinking'
p173
I01
sS'gamma'
p174
F0.20758946160666858
sS'class_weight'
p175
Nsa(dp176
S'kernel'
p177
g4
(g5
(S'S4'
I0
I1
tRp178
(I3
S'|'
NNNI4
I1
I0
tbS'poly'
tRp179
sS'C'
F310.84255795278347
sS'degree'
p180
I5
sS'coef0'
p181
F0.21201763415783959
sS'tol'
p182
F0.011208738362844809
sS'shrinking'
p183
I01
sS'gamma'
p184
F0.76357474274028436
sS'class_weight'
p185
Nsa(dp186
S'kernel'
p187
g4
(g5
(S'S4'
I0
I1
tRp188
(I3
S'|'
NNNI4
I1
I0
tbS'poly'
tRp189
sS'C'
F371.40817959244043
sS'degree'
p190
I3
sS'coef0'
p191
F0.09116071430031647
sS'tol'
p192
F0.0093352651181077689
sS'shrinking'
p193
I01
sS'gamma'
p194
F0.0072736920867647603
sS'class_weight'
p195
Nsa(dp196
S'kernel'
p197
g4
(g5
(S'S4'
I0
I1
tRp198
(I3
S'|'
NNNI4
I1
I0
tbS'poly'
tRp199
sS'C'
F1.2690623487682713
sS'degree'
p200
I3
sS'coef0'
p201
F0.12628608834817912
sS'tol'
p202
F0.015676196323477241
sS'shrinking'
p203
I01
sS'gamma'
p204
F0.70378237161876478
sS'class_weight'
p205
Nsa(dp206
S'kernel'
p207
g4
(g5
(S'S4'
I0
I1
tRp208
(I3
S'|'
NNNI4
I1
I0
tbS'poly'
tRp209
sS'C'
F0.0010872265962003605
sS'degree'
p210
I3
sS'coef0'
p211
F0.11298684251968683
sS'tol'
p212
F0.0075244877854258457
sS'shrinking'
p213
I00
sS'gamma'
p214
F0.48296846138187499
sS'class_weight'
p215
Nsa(dp216
S'kernel'
p217
g4
(g5
(S'S7'
I0
I1
tRp218
(I3
S'|'
NNNI7
I1
I0
tbS'sigmoid'
tRp219
sS'C'
F0.021049593450054336
sS'coef0'
p220
F0.60141811072019047
sS'tol'
p221
F0.0099441907908053434
sS'shrinking'
p222
I01
sS'gamma'
p223
F0.063263397209204708
sS'class_weight'
p224
S'auto'
p225
sa(dp226
S'kernel'
p227
g4
(g5
(S'S7'
I0
I1
tRp228
(I3
S'|'
NNNI7
I1
I0
tbS'sigmoid'
tRp229
sS'C'
F139.39121536095044
sS'coef0'
p230
F0.27479750647002998
sS'tol'
p231
F0.0077651680535512817
sS'shrinking'
p232
I01
sS'gamma'
p233
F0.71797496793932791
sS'class_weight'
p234
Nsa(dp235
S'kernel'
p236
g4
(g5
(S'S7'
I0
I1
tRp237
(I3
S'|'
NNNI7
I1
I0
tbS'sigmoid'
tRp238
sS'C'
F0.10461512549263641
sS'coef0'
p239
F0.23036859627609496
sS'tol'
p240
F0.0074359183601534883
sS'shrinking'
p241
I00
sS'gamma'
p242
F0.13031520767945282
sS'class_weight'
p243
Nsa(dp244
S'kernel'
p245
g4
(g5
(S'S7'
I0
I1
tRp246
(I3
S'|'
NNNI7
I1
I0
tbS'sigmoid'
tRp247
sS'C'
F3.9722996606651684
sS'coef0'
p248
F0.55109687896265291
sS'tol'
p249
F0.0077053770472703953
sS'shrinking'
p250
I00
sS'gamma'
p251
F0.31758401788216994
sS'class_weight'
p252
Nsa.